
Laboratorio4_Master.elf:     file format elf32-avr

Sections:
Idx Name          Size      VMA       LMA       File off  Algn
  0 .data         00000046  00800100  0000173e  000017d2  2**0
                  CONTENTS, ALLOC, LOAD, DATA
  1 .text         0000173e  00000000  00000000  00000094  2**1
                  CONTENTS, ALLOC, LOAD, READONLY, CODE
  2 .bss          00000017  00800146  00800146  00001818  2**0
                  ALLOC
  3 .comment      0000005c  00000000  00000000  00001818  2**0
                  CONTENTS, READONLY
  4 .note.gnu.avr.deviceinfo 00000040  00000000  00000000  00001874  2**2
                  CONTENTS, READONLY
  5 .debug_aranges 00000160  00000000  00000000  000018b4  2**0
                  CONTENTS, READONLY, DEBUGGING
  6 .debug_info   0000239a  00000000  00000000  00001a14  2**0
                  CONTENTS, READONLY, DEBUGGING
  7 .debug_abbrev 00000ded  00000000  00000000  00003dae  2**0
                  CONTENTS, READONLY, DEBUGGING
  8 .debug_line   0000114a  00000000  00000000  00004b9b  2**0
                  CONTENTS, READONLY, DEBUGGING
  9 .debug_frame  00000448  00000000  00000000  00005ce8  2**2
                  CONTENTS, READONLY, DEBUGGING
 10 .debug_str    0000093b  00000000  00000000  00006130  2**0
                  CONTENTS, READONLY, DEBUGGING
 11 .debug_loc    0000181f  00000000  00000000  00006a6b  2**0
                  CONTENTS, READONLY, DEBUGGING
 12 .debug_ranges 00000120  00000000  00000000  0000828a  2**0
                  CONTENTS, READONLY, DEBUGGING

Disassembly of section .text:

00000000 <__vectors>:
       0:	0c 94 5a 00 	jmp	0xb4	; 0xb4 <__ctors_end>
       4:	0c 94 77 00 	jmp	0xee	; 0xee <__bad_interrupt>
       8:	0c 94 77 00 	jmp	0xee	; 0xee <__bad_interrupt>
       c:	0c 94 77 00 	jmp	0xee	; 0xee <__bad_interrupt>
      10:	0c 94 77 00 	jmp	0xee	; 0xee <__bad_interrupt>
      14:	0c 94 77 00 	jmp	0xee	; 0xee <__bad_interrupt>
      18:	0c 94 77 00 	jmp	0xee	; 0xee <__bad_interrupt>
      1c:	0c 94 77 00 	jmp	0xee	; 0xee <__bad_interrupt>
      20:	0c 94 77 00 	jmp	0xee	; 0xee <__bad_interrupt>
      24:	0c 94 77 00 	jmp	0xee	; 0xee <__bad_interrupt>
      28:	0c 94 77 00 	jmp	0xee	; 0xee <__bad_interrupt>
      2c:	0c 94 77 00 	jmp	0xee	; 0xee <__bad_interrupt>
      30:	0c 94 77 00 	jmp	0xee	; 0xee <__bad_interrupt>
      34:	0c 94 77 00 	jmp	0xee	; 0xee <__bad_interrupt>
      38:	0c 94 77 00 	jmp	0xee	; 0xee <__bad_interrupt>
      3c:	0c 94 77 00 	jmp	0xee	; 0xee <__bad_interrupt>
      40:	0c 94 77 00 	jmp	0xee	; 0xee <__bad_interrupt>
      44:	0c 94 77 00 	jmp	0xee	; 0xee <__bad_interrupt>
      48:	0c 94 fe 05 	jmp	0xbfc	; 0xbfc <__vector_18>
      4c:	0c 94 77 00 	jmp	0xee	; 0xee <__bad_interrupt>
      50:	0c 94 77 00 	jmp	0xee	; 0xee <__bad_interrupt>
      54:	0c 94 77 00 	jmp	0xee	; 0xee <__bad_interrupt>
      58:	0c 94 77 00 	jmp	0xee	; 0xee <__bad_interrupt>
      5c:	0c 94 77 00 	jmp	0xee	; 0xee <__bad_interrupt>
      60:	0c 94 77 00 	jmp	0xee	; 0xee <__bad_interrupt>
      64:	0c 94 77 00 	jmp	0xee	; 0xee <__bad_interrupt>
      68:	0c 94 77 00 	jmp	0xee	; 0xee <__bad_interrupt>
      6c:	0c 94 77 00 	jmp	0xee	; 0xee <__bad_interrupt>
      70:	0c 94 77 00 	jmp	0xee	; 0xee <__bad_interrupt>
      74:	0c 94 77 00 	jmp	0xee	; 0xee <__bad_interrupt>
      78:	0c 94 77 00 	jmp	0xee	; 0xee <__bad_interrupt>
      7c:	0c 94 77 00 	jmp	0xee	; 0xee <__bad_interrupt>
      80:	0c 94 77 00 	jmp	0xee	; 0xee <__bad_interrupt>
      84:	0c 94 77 00 	jmp	0xee	; 0xee <__bad_interrupt>
      88:	0c 94 77 00 	jmp	0xee	; 0xee <__bad_interrupt>
      8c:	0c 94 77 00 	jmp	0xee	; 0xee <__bad_interrupt>
      90:	0c 94 77 00 	jmp	0xee	; 0xee <__bad_interrupt>
      94:	0c 94 77 00 	jmp	0xee	; 0xee <__bad_interrupt>
      98:	0c 94 77 00 	jmp	0xee	; 0xee <__bad_interrupt>
      9c:	0c 94 77 00 	jmp	0xee	; 0xee <__bad_interrupt>
      a0:	0c 94 77 00 	jmp	0xee	; 0xee <__bad_interrupt>
      a4:	0c 94 77 00 	jmp	0xee	; 0xee <__bad_interrupt>
      a8:	0c 94 20 06 	jmp	0xc40	; 0xc40 <__vector_42>
      ac:	0c 94 77 00 	jmp	0xee	; 0xee <__bad_interrupt>
      b0:	0c 94 77 00 	jmp	0xee	; 0xee <__bad_interrupt>

000000b4 <__ctors_end>:
      b4:	11 24       	eor	r1, r1
      b6:	1f be       	out	0x3f, r1	; 63
      b8:	cf ef       	ldi	r28, 0xFF	; 255
      ba:	d8 e0       	ldi	r29, 0x08	; 8
      bc:	de bf       	out	0x3e, r29	; 62
      be:	cd bf       	out	0x3d, r28	; 61

000000c0 <__do_copy_data>:
      c0:	11 e0       	ldi	r17, 0x01	; 1
      c2:	a0 e0       	ldi	r26, 0x00	; 0
      c4:	b1 e0       	ldi	r27, 0x01	; 1
      c6:	ee e3       	ldi	r30, 0x3E	; 62
      c8:	f7 e1       	ldi	r31, 0x17	; 23
      ca:	02 c0       	rjmp	.+4      	; 0xd0 <__do_copy_data+0x10>
      cc:	05 90       	lpm	r0, Z+
      ce:	0d 92       	st	X+, r0
      d0:	a6 34       	cpi	r26, 0x46	; 70
      d2:	b1 07       	cpc	r27, r17
      d4:	d9 f7       	brne	.-10     	; 0xcc <__do_copy_data+0xc>

000000d6 <__do_clear_bss>:
      d6:	21 e0       	ldi	r18, 0x01	; 1
      d8:	a6 e4       	ldi	r26, 0x46	; 70
      da:	b1 e0       	ldi	r27, 0x01	; 1
      dc:	01 c0       	rjmp	.+2      	; 0xe0 <.do_clear_bss_start>

000000de <.do_clear_bss_loop>:
      de:	1d 92       	st	X+, r1

000000e0 <.do_clear_bss_start>:
      e0:	ad 35       	cpi	r26, 0x5D	; 93
      e2:	b2 07       	cpc	r27, r18
      e4:	e1 f7       	brne	.-8      	; 0xde <.do_clear_bss_loop>
      e6:	0e 94 d4 04 	call	0x9a8	; 0x9a8 <main>
      ea:	0c 94 9d 0b 	jmp	0x173a	; 0x173a <_exit>

000000ee <__bad_interrupt>:
      ee:	0c 94 00 00 	jmp	0	; 0x0 <__vectors>

000000f2 <PIN_MODE>:
      f2:	86 30       	cpi	r24, 0x06	; 6
      f4:	08 f0       	brcs	.+2      	; 0xf8 <PIN_MODE+0x6>
      f6:	45 c0       	rjmp	.+138    	; 0x182 <PIN_MODE+0x90>
      f8:	61 11       	cpse	r22, r1
      fa:	1c c0       	rjmp	.+56     	; 0x134 <PIN_MODE+0x42>
      fc:	94 b1       	in	r25, 0x04	; 4
      fe:	48 2f       	mov	r20, r24
     100:	47 70       	andi	r20, 0x07	; 7
     102:	21 e0       	ldi	r18, 0x01	; 1
     104:	30 e0       	ldi	r19, 0x00	; 0
     106:	02 c0       	rjmp	.+4      	; 0x10c <PIN_MODE+0x1a>
     108:	22 0f       	add	r18, r18
     10a:	33 1f       	adc	r19, r19
     10c:	4a 95       	dec	r20
     10e:	e2 f7       	brpl	.-8      	; 0x108 <PIN_MODE+0x16>
     110:	29 2b       	or	r18, r25
     112:	24 b9       	out	0x04, r18	; 4
     114:	84 30       	cpi	r24, 0x04	; 4
     116:	29 f4       	brne	.+10     	; 0x122 <PIN_MODE+0x30>
     118:	e9 ec       	ldi	r30, 0xC9	; 201
     11a:	f0 e0       	ldi	r31, 0x00	; 0
     11c:	90 81       	ld	r25, Z
     11e:	9f 7e       	andi	r25, 0xEF	; 239
     120:	90 83       	st	Z, r25
     122:	83 30       	cpi	r24, 0x03	; 3
     124:	09 f0       	breq	.+2      	; 0x128 <PIN_MODE+0x36>
     126:	43 c1       	rjmp	.+646    	; 0x3ae <PIN_MODE+0x2bc>
     128:	e9 ec       	ldi	r30, 0xC9	; 201
     12a:	f0 e0       	ldi	r31, 0x00	; 0
     12c:	80 81       	ld	r24, Z
     12e:	87 7f       	andi	r24, 0xF7	; 247
     130:	80 83       	st	Z, r24
     132:	08 95       	ret
     134:	61 30       	cpi	r22, 0x01	; 1
     136:	99 f4       	brne	.+38     	; 0x15e <PIN_MODE+0x6c>
     138:	44 b1       	in	r20, 0x04	; 4
     13a:	87 70       	andi	r24, 0x07	; 7
     13c:	21 e0       	ldi	r18, 0x01	; 1
     13e:	30 e0       	ldi	r19, 0x00	; 0
     140:	b9 01       	movw	r22, r18
     142:	02 c0       	rjmp	.+4      	; 0x148 <PIN_MODE+0x56>
     144:	66 0f       	add	r22, r22
     146:	77 1f       	adc	r23, r23
     148:	8a 95       	dec	r24
     14a:	e2 f7       	brpl	.-8      	; 0x144 <PIN_MODE+0x52>
     14c:	cb 01       	movw	r24, r22
     14e:	96 2f       	mov	r25, r22
     150:	90 95       	com	r25
     152:	94 23       	and	r25, r20
     154:	94 b9       	out	0x04, r25	; 4
     156:	95 b1       	in	r25, 0x05	; 5
     158:	89 2b       	or	r24, r25
     15a:	85 b9       	out	0x05, r24	; 5
     15c:	08 95       	ret
     15e:	62 30       	cpi	r22, 0x02	; 2
     160:	09 f0       	breq	.+2      	; 0x164 <PIN_MODE+0x72>
     162:	25 c1       	rjmp	.+586    	; 0x3ae <PIN_MODE+0x2bc>
     164:	44 b1       	in	r20, 0x04	; 4
     166:	87 70       	andi	r24, 0x07	; 7
     168:	21 e0       	ldi	r18, 0x01	; 1
     16a:	30 e0       	ldi	r19, 0x00	; 0
     16c:	b9 01       	movw	r22, r18
     16e:	02 c0       	rjmp	.+4      	; 0x174 <PIN_MODE+0x82>
     170:	66 0f       	add	r22, r22
     172:	77 1f       	adc	r23, r23
     174:	8a 95       	dec	r24
     176:	e2 f7       	brpl	.-8      	; 0x170 <PIN_MODE+0x7e>
     178:	cb 01       	movw	r24, r22
     17a:	80 95       	com	r24
     17c:	84 23       	and	r24, r20
     17e:	84 b9       	out	0x04, r24	; 4
     180:	08 95       	ret
     182:	9a ef       	ldi	r25, 0xFA	; 250
     184:	98 0f       	add	r25, r24
     186:	96 30       	cpi	r25, 0x06	; 6
     188:	08 f0       	brcs	.+2      	; 0x18c <PIN_MODE+0x9a>
     18a:	52 c0       	rjmp	.+164    	; 0x230 <PIN_MODE+0x13e>
     18c:	61 11       	cpse	r22, r1
     18e:	17 c0       	rjmp	.+46     	; 0x1be <PIN_MODE+0xcc>
     190:	47 b1       	in	r20, 0x07	; 7
     192:	90 e0       	ldi	r25, 0x00	; 0
     194:	02 96       	adiw	r24, 0x02	; 2
     196:	87 70       	andi	r24, 0x07	; 7
     198:	90 78       	andi	r25, 0x80	; 128
     19a:	99 23       	and	r25, r25
     19c:	24 f4       	brge	.+8      	; 0x1a6 <PIN_MODE+0xb4>
     19e:	01 97       	sbiw	r24, 0x01	; 1
     1a0:	88 6f       	ori	r24, 0xF8	; 248
     1a2:	9f 6f       	ori	r25, 0xFF	; 255
     1a4:	01 96       	adiw	r24, 0x01	; 1
     1a6:	21 e0       	ldi	r18, 0x01	; 1
     1a8:	30 e0       	ldi	r19, 0x00	; 0
     1aa:	b9 01       	movw	r22, r18
     1ac:	02 c0       	rjmp	.+4      	; 0x1b2 <PIN_MODE+0xc0>
     1ae:	66 0f       	add	r22, r22
     1b0:	77 1f       	adc	r23, r23
     1b2:	8a 95       	dec	r24
     1b4:	e2 f7       	brpl	.-8      	; 0x1ae <PIN_MODE+0xbc>
     1b6:	cb 01       	movw	r24, r22
     1b8:	84 2b       	or	r24, r20
     1ba:	87 b9       	out	0x07, r24	; 7
     1bc:	08 95       	ret
     1be:	61 30       	cpi	r22, 0x01	; 1
     1c0:	e1 f4       	brne	.+56     	; 0x1fa <PIN_MODE+0x108>
     1c2:	47 b1       	in	r20, 0x07	; 7
     1c4:	90 e0       	ldi	r25, 0x00	; 0
     1c6:	02 96       	adiw	r24, 0x02	; 2
     1c8:	87 70       	andi	r24, 0x07	; 7
     1ca:	90 78       	andi	r25, 0x80	; 128
     1cc:	99 23       	and	r25, r25
     1ce:	24 f4       	brge	.+8      	; 0x1d8 <PIN_MODE+0xe6>
     1d0:	01 97       	sbiw	r24, 0x01	; 1
     1d2:	88 6f       	ori	r24, 0xF8	; 248
     1d4:	9f 6f       	ori	r25, 0xFF	; 255
     1d6:	01 96       	adiw	r24, 0x01	; 1
     1d8:	21 e0       	ldi	r18, 0x01	; 1
     1da:	30 e0       	ldi	r19, 0x00	; 0
     1dc:	b9 01       	movw	r22, r18
     1de:	02 c0       	rjmp	.+4      	; 0x1e4 <PIN_MODE+0xf2>
     1e0:	66 0f       	add	r22, r22
     1e2:	77 1f       	adc	r23, r23
     1e4:	8a 95       	dec	r24
     1e6:	e2 f7       	brpl	.-8      	; 0x1e0 <PIN_MODE+0xee>
     1e8:	cb 01       	movw	r24, r22
     1ea:	96 2f       	mov	r25, r22
     1ec:	90 95       	com	r25
     1ee:	94 23       	and	r25, r20
     1f0:	97 b9       	out	0x07, r25	; 7
     1f2:	98 b1       	in	r25, 0x08	; 8
     1f4:	89 2b       	or	r24, r25
     1f6:	88 b9       	out	0x08, r24	; 8
     1f8:	08 95       	ret
     1fa:	62 30       	cpi	r22, 0x02	; 2
     1fc:	09 f0       	breq	.+2      	; 0x200 <PIN_MODE+0x10e>
     1fe:	d7 c0       	rjmp	.+430    	; 0x3ae <PIN_MODE+0x2bc>
     200:	47 b1       	in	r20, 0x07	; 7
     202:	90 e0       	ldi	r25, 0x00	; 0
     204:	02 96       	adiw	r24, 0x02	; 2
     206:	87 70       	andi	r24, 0x07	; 7
     208:	90 78       	andi	r25, 0x80	; 128
     20a:	99 23       	and	r25, r25
     20c:	24 f4       	brge	.+8      	; 0x216 <PIN_MODE+0x124>
     20e:	01 97       	sbiw	r24, 0x01	; 1
     210:	88 6f       	ori	r24, 0xF8	; 248
     212:	9f 6f       	ori	r25, 0xFF	; 255
     214:	01 96       	adiw	r24, 0x01	; 1
     216:	21 e0       	ldi	r18, 0x01	; 1
     218:	30 e0       	ldi	r19, 0x00	; 0
     21a:	b9 01       	movw	r22, r18
     21c:	02 c0       	rjmp	.+4      	; 0x222 <PIN_MODE+0x130>
     21e:	66 0f       	add	r22, r22
     220:	77 1f       	adc	r23, r23
     222:	8a 95       	dec	r24
     224:	e2 f7       	brpl	.-8      	; 0x21e <PIN_MODE+0x12c>
     226:	cb 01       	movw	r24, r22
     228:	80 95       	com	r24
     22a:	84 23       	and	r24, r20
     22c:	87 b9       	out	0x07, r24	; 7
     22e:	08 95       	ret
     230:	94 ef       	ldi	r25, 0xF4	; 244
     232:	98 0f       	add	r25, r24
     234:	98 30       	cpi	r25, 0x08	; 8
     236:	08 f0       	brcs	.+2      	; 0x23a <PIN_MODE+0x148>
     238:	65 c0       	rjmp	.+202    	; 0x304 <PIN_MODE+0x212>
     23a:	61 11       	cpse	r22, r1
     23c:	2a c0       	rjmp	.+84     	; 0x292 <PIN_MODE+0x1a0>
     23e:	9a b1       	in	r25, 0x0a	; 10
     240:	28 2f       	mov	r18, r24
     242:	30 e0       	ldi	r19, 0x00	; 0
     244:	2c 5f       	subi	r18, 0xFC	; 252
     246:	3f 4f       	sbci	r19, 0xFF	; 255
     248:	27 70       	andi	r18, 0x07	; 7
     24a:	30 78       	andi	r19, 0x80	; 128
     24c:	33 23       	and	r19, r19
     24e:	34 f4       	brge	.+12     	; 0x25c <PIN_MODE+0x16a>
     250:	21 50       	subi	r18, 0x01	; 1
     252:	31 09       	sbc	r19, r1
     254:	28 6f       	ori	r18, 0xF8	; 248
     256:	3f 6f       	ori	r19, 0xFF	; 255
     258:	2f 5f       	subi	r18, 0xFF	; 255
     25a:	3f 4f       	sbci	r19, 0xFF	; 255
     25c:	41 e0       	ldi	r20, 0x01	; 1
     25e:	50 e0       	ldi	r21, 0x00	; 0
     260:	ba 01       	movw	r22, r20
     262:	02 c0       	rjmp	.+4      	; 0x268 <PIN_MODE+0x176>
     264:	66 0f       	add	r22, r22
     266:	77 1f       	adc	r23, r23
     268:	2a 95       	dec	r18
     26a:	e2 f7       	brpl	.-8      	; 0x264 <PIN_MODE+0x172>
     26c:	9b 01       	movw	r18, r22
     26e:	29 2b       	or	r18, r25
     270:	2a b9       	out	0x0a, r18	; 10
     272:	8c 30       	cpi	r24, 0x0C	; 12
     274:	29 f4       	brne	.+10     	; 0x280 <PIN_MODE+0x18e>
     276:	e1 ec       	ldi	r30, 0xC1	; 193
     278:	f0 e0       	ldi	r31, 0x00	; 0
     27a:	90 81       	ld	r25, Z
     27c:	9f 7e       	andi	r25, 0xEF	; 239
     27e:	90 83       	st	Z, r25
     280:	8d 30       	cpi	r24, 0x0D	; 13
     282:	09 f0       	breq	.+2      	; 0x286 <PIN_MODE+0x194>
     284:	94 c0       	rjmp	.+296    	; 0x3ae <PIN_MODE+0x2bc>
     286:	e1 ec       	ldi	r30, 0xC1	; 193
     288:	f0 e0       	ldi	r31, 0x00	; 0
     28a:	80 81       	ld	r24, Z
     28c:	87 7f       	andi	r24, 0xF7	; 247
     28e:	80 83       	st	Z, r24
     290:	08 95       	ret
     292:	61 30       	cpi	r22, 0x01	; 1
     294:	e1 f4       	brne	.+56     	; 0x2ce <PIN_MODE+0x1dc>
     296:	4a b1       	in	r20, 0x0a	; 10
     298:	90 e0       	ldi	r25, 0x00	; 0
     29a:	04 96       	adiw	r24, 0x04	; 4
     29c:	87 70       	andi	r24, 0x07	; 7
     29e:	90 78       	andi	r25, 0x80	; 128
     2a0:	99 23       	and	r25, r25
     2a2:	24 f4       	brge	.+8      	; 0x2ac <PIN_MODE+0x1ba>
     2a4:	01 97       	sbiw	r24, 0x01	; 1
     2a6:	88 6f       	ori	r24, 0xF8	; 248
     2a8:	9f 6f       	ori	r25, 0xFF	; 255
     2aa:	01 96       	adiw	r24, 0x01	; 1
     2ac:	21 e0       	ldi	r18, 0x01	; 1
     2ae:	30 e0       	ldi	r19, 0x00	; 0
     2b0:	b9 01       	movw	r22, r18
     2b2:	02 c0       	rjmp	.+4      	; 0x2b8 <PIN_MODE+0x1c6>
     2b4:	66 0f       	add	r22, r22
     2b6:	77 1f       	adc	r23, r23
     2b8:	8a 95       	dec	r24
     2ba:	e2 f7       	brpl	.-8      	; 0x2b4 <PIN_MODE+0x1c2>
     2bc:	cb 01       	movw	r24, r22
     2be:	96 2f       	mov	r25, r22
     2c0:	90 95       	com	r25
     2c2:	94 23       	and	r25, r20
     2c4:	9a b9       	out	0x0a, r25	; 10
     2c6:	9b b1       	in	r25, 0x0b	; 11
     2c8:	89 2b       	or	r24, r25
     2ca:	8b b9       	out	0x0b, r24	; 11
     2cc:	08 95       	ret
     2ce:	62 30       	cpi	r22, 0x02	; 2
     2d0:	09 f0       	breq	.+2      	; 0x2d4 <PIN_MODE+0x1e2>
     2d2:	6d c0       	rjmp	.+218    	; 0x3ae <PIN_MODE+0x2bc>
     2d4:	4a b1       	in	r20, 0x0a	; 10
     2d6:	90 e0       	ldi	r25, 0x00	; 0
     2d8:	04 96       	adiw	r24, 0x04	; 4
     2da:	87 70       	andi	r24, 0x07	; 7
     2dc:	90 78       	andi	r25, 0x80	; 128
     2de:	99 23       	and	r25, r25
     2e0:	24 f4       	brge	.+8      	; 0x2ea <PIN_MODE+0x1f8>
     2e2:	01 97       	sbiw	r24, 0x01	; 1
     2e4:	88 6f       	ori	r24, 0xF8	; 248
     2e6:	9f 6f       	ori	r25, 0xFF	; 255
     2e8:	01 96       	adiw	r24, 0x01	; 1
     2ea:	21 e0       	ldi	r18, 0x01	; 1
     2ec:	30 e0       	ldi	r19, 0x00	; 0
     2ee:	b9 01       	movw	r22, r18
     2f0:	02 c0       	rjmp	.+4      	; 0x2f6 <PIN_MODE+0x204>
     2f2:	66 0f       	add	r22, r22
     2f4:	77 1f       	adc	r23, r23
     2f6:	8a 95       	dec	r24
     2f8:	e2 f7       	brpl	.-8      	; 0x2f2 <PIN_MODE+0x200>
     2fa:	cb 01       	movw	r24, r22
     2fc:	80 95       	com	r24
     2fe:	84 23       	and	r24, r20
     300:	8a b9       	out	0x0a, r24	; 10
     302:	08 95       	ret
     304:	9c ee       	ldi	r25, 0xEC	; 236
     306:	98 0f       	add	r25, r24
     308:	92 30       	cpi	r25, 0x02	; 2
     30a:	08 f0       	brcs	.+2      	; 0x30e <PIN_MODE+0x21c>
     30c:	50 c0       	rjmp	.+160    	; 0x3ae <PIN_MODE+0x2bc>
     30e:	61 11       	cpse	r22, r1
     310:	17 c0       	rjmp	.+46     	; 0x340 <PIN_MODE+0x24e>
     312:	4d b1       	in	r20, 0x0d	; 13
     314:	90 e0       	ldi	r25, 0x00	; 0
     316:	02 97       	sbiw	r24, 0x02	; 2
     318:	87 70       	andi	r24, 0x07	; 7
     31a:	90 78       	andi	r25, 0x80	; 128
     31c:	99 23       	and	r25, r25
     31e:	24 f4       	brge	.+8      	; 0x328 <PIN_MODE+0x236>
     320:	01 97       	sbiw	r24, 0x01	; 1
     322:	88 6f       	ori	r24, 0xF8	; 248
     324:	9f 6f       	ori	r25, 0xFF	; 255
     326:	01 96       	adiw	r24, 0x01	; 1
     328:	21 e0       	ldi	r18, 0x01	; 1
     32a:	30 e0       	ldi	r19, 0x00	; 0
     32c:	b9 01       	movw	r22, r18
     32e:	02 c0       	rjmp	.+4      	; 0x334 <PIN_MODE+0x242>
     330:	66 0f       	add	r22, r22
     332:	77 1f       	adc	r23, r23
     334:	8a 95       	dec	r24
     336:	e2 f7       	brpl	.-8      	; 0x330 <PIN_MODE+0x23e>
     338:	cb 01       	movw	r24, r22
     33a:	84 2b       	or	r24, r20
     33c:	8d b9       	out	0x0d, r24	; 13
     33e:	08 95       	ret
     340:	61 30       	cpi	r22, 0x01	; 1
     342:	e1 f4       	brne	.+56     	; 0x37c <PIN_MODE+0x28a>
     344:	4d b1       	in	r20, 0x0d	; 13
     346:	90 e0       	ldi	r25, 0x00	; 0
     348:	02 97       	sbiw	r24, 0x02	; 2
     34a:	87 70       	andi	r24, 0x07	; 7
     34c:	90 78       	andi	r25, 0x80	; 128
     34e:	99 23       	and	r25, r25
     350:	24 f4       	brge	.+8      	; 0x35a <PIN_MODE+0x268>
     352:	01 97       	sbiw	r24, 0x01	; 1
     354:	88 6f       	ori	r24, 0xF8	; 248
     356:	9f 6f       	ori	r25, 0xFF	; 255
     358:	01 96       	adiw	r24, 0x01	; 1
     35a:	21 e0       	ldi	r18, 0x01	; 1
     35c:	30 e0       	ldi	r19, 0x00	; 0
     35e:	b9 01       	movw	r22, r18
     360:	02 c0       	rjmp	.+4      	; 0x366 <PIN_MODE+0x274>
     362:	66 0f       	add	r22, r22
     364:	77 1f       	adc	r23, r23
     366:	8a 95       	dec	r24
     368:	e2 f7       	brpl	.-8      	; 0x362 <PIN_MODE+0x270>
     36a:	cb 01       	movw	r24, r22
     36c:	96 2f       	mov	r25, r22
     36e:	90 95       	com	r25
     370:	94 23       	and	r25, r20
     372:	9d b9       	out	0x0d, r25	; 13
     374:	9e b1       	in	r25, 0x0e	; 14
     376:	89 2b       	or	r24, r25
     378:	8e b9       	out	0x0e, r24	; 14
     37a:	08 95       	ret
     37c:	62 30       	cpi	r22, 0x02	; 2
     37e:	b9 f4       	brne	.+46     	; 0x3ae <PIN_MODE+0x2bc>
     380:	4d b1       	in	r20, 0x0d	; 13
     382:	90 e0       	ldi	r25, 0x00	; 0
     384:	02 97       	sbiw	r24, 0x02	; 2
     386:	87 70       	andi	r24, 0x07	; 7
     388:	90 78       	andi	r25, 0x80	; 128
     38a:	99 23       	and	r25, r25
     38c:	24 f4       	brge	.+8      	; 0x396 <PIN_MODE+0x2a4>
     38e:	01 97       	sbiw	r24, 0x01	; 1
     390:	88 6f       	ori	r24, 0xF8	; 248
     392:	9f 6f       	ori	r25, 0xFF	; 255
     394:	01 96       	adiw	r24, 0x01	; 1
     396:	21 e0       	ldi	r18, 0x01	; 1
     398:	30 e0       	ldi	r19, 0x00	; 0
     39a:	b9 01       	movw	r22, r18
     39c:	02 c0       	rjmp	.+4      	; 0x3a2 <PIN_MODE+0x2b0>
     39e:	66 0f       	add	r22, r22
     3a0:	77 1f       	adc	r23, r23
     3a2:	8a 95       	dec	r24
     3a4:	e2 f7       	brpl	.-8      	; 0x39e <PIN_MODE+0x2ac>
     3a6:	cb 01       	movw	r24, r22
     3a8:	80 95       	com	r24
     3aa:	84 23       	and	r24, r20
     3ac:	8d b9       	out	0x0d, r24	; 13
     3ae:	08 95       	ret

000003b0 <DIGITAL_WRITE>:
     3b0:	86 30       	cpi	r24, 0x06	; 6
     3b2:	f8 f4       	brcc	.+62     	; 0x3f2 <DIGITAL_WRITE+0x42>
     3b4:	66 23       	and	r22, r22
     3b6:	71 f0       	breq	.+28     	; 0x3d4 <DIGITAL_WRITE+0x24>
     3b8:	45 b1       	in	r20, 0x05	; 5
     3ba:	87 70       	andi	r24, 0x07	; 7
     3bc:	21 e0       	ldi	r18, 0x01	; 1
     3be:	30 e0       	ldi	r19, 0x00	; 0
     3c0:	b9 01       	movw	r22, r18
     3c2:	02 c0       	rjmp	.+4      	; 0x3c8 <DIGITAL_WRITE+0x18>
     3c4:	66 0f       	add	r22, r22
     3c6:	77 1f       	adc	r23, r23
     3c8:	8a 95       	dec	r24
     3ca:	e2 f7       	brpl	.-8      	; 0x3c4 <DIGITAL_WRITE+0x14>
     3cc:	cb 01       	movw	r24, r22
     3ce:	84 2b       	or	r24, r20
     3d0:	85 b9       	out	0x05, r24	; 5
     3d2:	08 95       	ret
     3d4:	45 b1       	in	r20, 0x05	; 5
     3d6:	87 70       	andi	r24, 0x07	; 7
     3d8:	21 e0       	ldi	r18, 0x01	; 1
     3da:	30 e0       	ldi	r19, 0x00	; 0
     3dc:	b9 01       	movw	r22, r18
     3de:	02 c0       	rjmp	.+4      	; 0x3e4 <DIGITAL_WRITE+0x34>
     3e0:	66 0f       	add	r22, r22
     3e2:	77 1f       	adc	r23, r23
     3e4:	8a 95       	dec	r24
     3e6:	e2 f7       	brpl	.-8      	; 0x3e0 <DIGITAL_WRITE+0x30>
     3e8:	cb 01       	movw	r24, r22
     3ea:	80 95       	com	r24
     3ec:	84 23       	and	r24, r20
     3ee:	85 b9       	out	0x05, r24	; 5
     3f0:	08 95       	ret
     3f2:	9a ef       	ldi	r25, 0xFA	; 250
     3f4:	98 0f       	add	r25, r24
     3f6:	96 30       	cpi	r25, 0x06	; 6
     3f8:	88 f5       	brcc	.+98     	; 0x45c <__EEPROM_REGION_LENGTH__+0x5c>
     3fa:	66 23       	and	r22, r22
     3fc:	b9 f0       	breq	.+46     	; 0x42c <__EEPROM_REGION_LENGTH__+0x2c>
     3fe:	48 b1       	in	r20, 0x08	; 8
     400:	90 e0       	ldi	r25, 0x00	; 0
     402:	02 96       	adiw	r24, 0x02	; 2
     404:	87 70       	andi	r24, 0x07	; 7
     406:	90 78       	andi	r25, 0x80	; 128
     408:	99 23       	and	r25, r25
     40a:	24 f4       	brge	.+8      	; 0x414 <__EEPROM_REGION_LENGTH__+0x14>
     40c:	01 97       	sbiw	r24, 0x01	; 1
     40e:	88 6f       	ori	r24, 0xF8	; 248
     410:	9f 6f       	ori	r25, 0xFF	; 255
     412:	01 96       	adiw	r24, 0x01	; 1
     414:	21 e0       	ldi	r18, 0x01	; 1
     416:	30 e0       	ldi	r19, 0x00	; 0
     418:	b9 01       	movw	r22, r18
     41a:	02 c0       	rjmp	.+4      	; 0x420 <__EEPROM_REGION_LENGTH__+0x20>
     41c:	66 0f       	add	r22, r22
     41e:	77 1f       	adc	r23, r23
     420:	8a 95       	dec	r24
     422:	e2 f7       	brpl	.-8      	; 0x41c <__EEPROM_REGION_LENGTH__+0x1c>
     424:	cb 01       	movw	r24, r22
     426:	84 2b       	or	r24, r20
     428:	88 b9       	out	0x08, r24	; 8
     42a:	08 95       	ret
     42c:	48 b1       	in	r20, 0x08	; 8
     42e:	90 e0       	ldi	r25, 0x00	; 0
     430:	02 96       	adiw	r24, 0x02	; 2
     432:	87 70       	andi	r24, 0x07	; 7
     434:	90 78       	andi	r25, 0x80	; 128
     436:	99 23       	and	r25, r25
     438:	24 f4       	brge	.+8      	; 0x442 <__EEPROM_REGION_LENGTH__+0x42>
     43a:	01 97       	sbiw	r24, 0x01	; 1
     43c:	88 6f       	ori	r24, 0xF8	; 248
     43e:	9f 6f       	ori	r25, 0xFF	; 255
     440:	01 96       	adiw	r24, 0x01	; 1
     442:	21 e0       	ldi	r18, 0x01	; 1
     444:	30 e0       	ldi	r19, 0x00	; 0
     446:	b9 01       	movw	r22, r18
     448:	02 c0       	rjmp	.+4      	; 0x44e <__EEPROM_REGION_LENGTH__+0x4e>
     44a:	66 0f       	add	r22, r22
     44c:	77 1f       	adc	r23, r23
     44e:	8a 95       	dec	r24
     450:	e2 f7       	brpl	.-8      	; 0x44a <__EEPROM_REGION_LENGTH__+0x4a>
     452:	cb 01       	movw	r24, r22
     454:	80 95       	com	r24
     456:	84 23       	and	r24, r20
     458:	88 b9       	out	0x08, r24	; 8
     45a:	08 95       	ret
     45c:	94 ef       	ldi	r25, 0xF4	; 244
     45e:	98 0f       	add	r25, r24
     460:	98 30       	cpi	r25, 0x08	; 8
     462:	88 f5       	brcc	.+98     	; 0x4c6 <__EEPROM_REGION_LENGTH__+0xc6>
     464:	66 23       	and	r22, r22
     466:	b9 f0       	breq	.+46     	; 0x496 <__EEPROM_REGION_LENGTH__+0x96>
     468:	4b b1       	in	r20, 0x0b	; 11
     46a:	90 e0       	ldi	r25, 0x00	; 0
     46c:	04 96       	adiw	r24, 0x04	; 4
     46e:	87 70       	andi	r24, 0x07	; 7
     470:	90 78       	andi	r25, 0x80	; 128
     472:	99 23       	and	r25, r25
     474:	24 f4       	brge	.+8      	; 0x47e <__EEPROM_REGION_LENGTH__+0x7e>
     476:	01 97       	sbiw	r24, 0x01	; 1
     478:	88 6f       	ori	r24, 0xF8	; 248
     47a:	9f 6f       	ori	r25, 0xFF	; 255
     47c:	01 96       	adiw	r24, 0x01	; 1
     47e:	21 e0       	ldi	r18, 0x01	; 1
     480:	30 e0       	ldi	r19, 0x00	; 0
     482:	b9 01       	movw	r22, r18
     484:	02 c0       	rjmp	.+4      	; 0x48a <__EEPROM_REGION_LENGTH__+0x8a>
     486:	66 0f       	add	r22, r22
     488:	77 1f       	adc	r23, r23
     48a:	8a 95       	dec	r24
     48c:	e2 f7       	brpl	.-8      	; 0x486 <__EEPROM_REGION_LENGTH__+0x86>
     48e:	cb 01       	movw	r24, r22
     490:	84 2b       	or	r24, r20
     492:	8b b9       	out	0x0b, r24	; 11
     494:	08 95       	ret
     496:	4b b1       	in	r20, 0x0b	; 11
     498:	90 e0       	ldi	r25, 0x00	; 0
     49a:	04 96       	adiw	r24, 0x04	; 4
     49c:	87 70       	andi	r24, 0x07	; 7
     49e:	90 78       	andi	r25, 0x80	; 128
     4a0:	99 23       	and	r25, r25
     4a2:	24 f4       	brge	.+8      	; 0x4ac <__EEPROM_REGION_LENGTH__+0xac>
     4a4:	01 97       	sbiw	r24, 0x01	; 1
     4a6:	88 6f       	ori	r24, 0xF8	; 248
     4a8:	9f 6f       	ori	r25, 0xFF	; 255
     4aa:	01 96       	adiw	r24, 0x01	; 1
     4ac:	21 e0       	ldi	r18, 0x01	; 1
     4ae:	30 e0       	ldi	r19, 0x00	; 0
     4b0:	b9 01       	movw	r22, r18
     4b2:	02 c0       	rjmp	.+4      	; 0x4b8 <__EEPROM_REGION_LENGTH__+0xb8>
     4b4:	66 0f       	add	r22, r22
     4b6:	77 1f       	adc	r23, r23
     4b8:	8a 95       	dec	r24
     4ba:	e2 f7       	brpl	.-8      	; 0x4b4 <__EEPROM_REGION_LENGTH__+0xb4>
     4bc:	cb 01       	movw	r24, r22
     4be:	80 95       	com	r24
     4c0:	84 23       	and	r24, r20
     4c2:	8b b9       	out	0x0b, r24	; 11
     4c4:	08 95       	ret
     4c6:	9c ee       	ldi	r25, 0xEC	; 236
     4c8:	98 0f       	add	r25, r24
     4ca:	92 30       	cpi	r25, 0x02	; 2
     4cc:	80 f5       	brcc	.+96     	; 0x52e <__EEPROM_REGION_LENGTH__+0x12e>
     4ce:	66 23       	and	r22, r22
     4d0:	b9 f0       	breq	.+46     	; 0x500 <__EEPROM_REGION_LENGTH__+0x100>
     4d2:	4e b1       	in	r20, 0x0e	; 14
     4d4:	90 e0       	ldi	r25, 0x00	; 0
     4d6:	02 97       	sbiw	r24, 0x02	; 2
     4d8:	87 70       	andi	r24, 0x07	; 7
     4da:	90 78       	andi	r25, 0x80	; 128
     4dc:	99 23       	and	r25, r25
     4de:	24 f4       	brge	.+8      	; 0x4e8 <__EEPROM_REGION_LENGTH__+0xe8>
     4e0:	01 97       	sbiw	r24, 0x01	; 1
     4e2:	88 6f       	ori	r24, 0xF8	; 248
     4e4:	9f 6f       	ori	r25, 0xFF	; 255
     4e6:	01 96       	adiw	r24, 0x01	; 1
     4e8:	21 e0       	ldi	r18, 0x01	; 1
     4ea:	30 e0       	ldi	r19, 0x00	; 0
     4ec:	b9 01       	movw	r22, r18
     4ee:	02 c0       	rjmp	.+4      	; 0x4f4 <__EEPROM_REGION_LENGTH__+0xf4>
     4f0:	66 0f       	add	r22, r22
     4f2:	77 1f       	adc	r23, r23
     4f4:	8a 95       	dec	r24
     4f6:	e2 f7       	brpl	.-8      	; 0x4f0 <__EEPROM_REGION_LENGTH__+0xf0>
     4f8:	cb 01       	movw	r24, r22
     4fa:	84 2b       	or	r24, r20
     4fc:	8e b9       	out	0x0e, r24	; 14
     4fe:	08 95       	ret
     500:	4e b1       	in	r20, 0x0e	; 14
     502:	90 e0       	ldi	r25, 0x00	; 0
     504:	02 97       	sbiw	r24, 0x02	; 2
     506:	87 70       	andi	r24, 0x07	; 7
     508:	90 78       	andi	r25, 0x80	; 128
     50a:	99 23       	and	r25, r25
     50c:	24 f4       	brge	.+8      	; 0x516 <__EEPROM_REGION_LENGTH__+0x116>
     50e:	01 97       	sbiw	r24, 0x01	; 1
     510:	88 6f       	ori	r24, 0xF8	; 248
     512:	9f 6f       	ori	r25, 0xFF	; 255
     514:	01 96       	adiw	r24, 0x01	; 1
     516:	21 e0       	ldi	r18, 0x01	; 1
     518:	30 e0       	ldi	r19, 0x00	; 0
     51a:	b9 01       	movw	r22, r18
     51c:	02 c0       	rjmp	.+4      	; 0x522 <__EEPROM_REGION_LENGTH__+0x122>
     51e:	66 0f       	add	r22, r22
     520:	77 1f       	adc	r23, r23
     522:	8a 95       	dec	r24
     524:	e2 f7       	brpl	.-8      	; 0x51e <__EEPROM_REGION_LENGTH__+0x11e>
     526:	cb 01       	movw	r24, r22
     528:	80 95       	com	r24
     52a:	84 23       	and	r24, r20
     52c:	8e b9       	out	0x0e, r24	; 14
     52e:	08 95       	ret

00000530 <lcd_command>:
     530:	cf 93       	push	r28
     532:	c8 2f       	mov	r28, r24
     534:	68 2f       	mov	r22, r24
     536:	61 70       	andi	r22, 0x01	; 1
     538:	80 91 4d 01 	lds	r24, 0x014D	; 0x80014d <d0_lcd>
     53c:	0e 94 d8 01 	call	0x3b0	; 0x3b0 <DIGITAL_WRITE>
     540:	6c 2f       	mov	r22, r28
     542:	62 70       	andi	r22, 0x02	; 2
     544:	80 91 4b 01 	lds	r24, 0x014B	; 0x80014b <d1_lcd>
     548:	0e 94 d8 01 	call	0x3b0	; 0x3b0 <DIGITAL_WRITE>
     54c:	6c 2f       	mov	r22, r28
     54e:	64 70       	andi	r22, 0x04	; 4
     550:	80 91 4f 01 	lds	r24, 0x014F	; 0x80014f <d2_lcd>
     554:	0e 94 d8 01 	call	0x3b0	; 0x3b0 <DIGITAL_WRITE>
     558:	6c 2f       	mov	r22, r28
     55a:	68 70       	andi	r22, 0x08	; 8
     55c:	80 91 51 01 	lds	r24, 0x0151	; 0x800151 <d3_lcd>
     560:	0e 94 d8 01 	call	0x3b0	; 0x3b0 <DIGITAL_WRITE>
     564:	6c 2f       	mov	r22, r28
     566:	60 71       	andi	r22, 0x10	; 16
     568:	80 91 53 01 	lds	r24, 0x0153	; 0x800153 <d4_lcd>
     56c:	0e 94 d8 01 	call	0x3b0	; 0x3b0 <DIGITAL_WRITE>
     570:	6c 2f       	mov	r22, r28
     572:	60 72       	andi	r22, 0x20	; 32
     574:	80 91 50 01 	lds	r24, 0x0150	; 0x800150 <d5_lcd>
     578:	0e 94 d8 01 	call	0x3b0	; 0x3b0 <DIGITAL_WRITE>
     57c:	6c 2f       	mov	r22, r28
     57e:	60 74       	andi	r22, 0x40	; 64
     580:	80 91 4c 01 	lds	r24, 0x014C	; 0x80014c <d6_lcd>
     584:	0e 94 d8 01 	call	0x3b0	; 0x3b0 <DIGITAL_WRITE>
     588:	6c 2f       	mov	r22, r28
     58a:	60 78       	andi	r22, 0x80	; 128
     58c:	80 91 4e 01 	lds	r24, 0x014E	; 0x80014e <d7_lcd>
     590:	0e 94 d8 01 	call	0x3b0	; 0x3b0 <DIGITAL_WRITE>
     594:	60 e0       	ldi	r22, 0x00	; 0
     596:	80 91 52 01 	lds	r24, 0x0152	; 0x800152 <rs_lcd>
     59a:	0e 94 d8 01 	call	0x3b0	; 0x3b0 <DIGITAL_WRITE>
     59e:	61 e0       	ldi	r22, 0x01	; 1
     5a0:	80 91 4a 01 	lds	r24, 0x014A	; 0x80014a <en_lcd>
     5a4:	0e 94 d8 01 	call	0x3b0	; 0x3b0 <DIGITAL_WRITE>
     5a8:	8f e7       	ldi	r24, 0x7F	; 127
     5aa:	9e e3       	ldi	r25, 0x3E	; 62
     5ac:	01 97       	sbiw	r24, 0x01	; 1
     5ae:	f1 f7       	brne	.-4      	; 0x5ac <lcd_command+0x7c>
     5b0:	00 c0       	rjmp	.+0      	; 0x5b2 <lcd_command+0x82>
     5b2:	00 00       	nop
     5b4:	60 e0       	ldi	r22, 0x00	; 0
     5b6:	80 91 4a 01 	lds	r24, 0x014A	; 0x80014a <en_lcd>
     5ba:	0e 94 d8 01 	call	0x3b0	; 0x3b0 <DIGITAL_WRITE>
     5be:	cf 91       	pop	r28
     5c0:	08 95       	ret

000005c2 <lcd_clear>:
     5c2:	81 e0       	ldi	r24, 0x01	; 1
     5c4:	0e 94 98 02 	call	0x530	; 0x530 <lcd_command>
     5c8:	8f e3       	ldi	r24, 0x3F	; 63
     5ca:	9f e1       	ldi	r25, 0x1F	; 31
     5cc:	01 97       	sbiw	r24, 0x01	; 1
     5ce:	f1 f7       	brne	.-4      	; 0x5cc <lcd_clear+0xa>
     5d0:	00 c0       	rjmp	.+0      	; 0x5d2 <lcd_clear+0x10>
     5d2:	00 00       	nop
     5d4:	08 95       	ret

000005d6 <lcd_display_on>:
     5d6:	8c e0       	ldi	r24, 0x0C	; 12
     5d8:	0e 94 98 02 	call	0x530	; 0x530 <lcd_command>
     5dc:	8f e3       	ldi	r24, 0x3F	; 63
     5de:	9f e1       	ldi	r25, 0x1F	; 31
     5e0:	01 97       	sbiw	r24, 0x01	; 1
     5e2:	f1 f7       	brne	.-4      	; 0x5e0 <lcd_display_on+0xa>
     5e4:	00 c0       	rjmp	.+0      	; 0x5e6 <lcd_display_on+0x10>
     5e6:	00 00       	nop
     5e8:	08 95       	ret

000005ea <lcd_begin>:
     5ea:	8f 92       	push	r8
     5ec:	af 92       	push	r10
     5ee:	cf 92       	push	r12
     5f0:	ef 92       	push	r14
     5f2:	0f 93       	push	r16
     5f4:	cf 93       	push	r28
     5f6:	df 93       	push	r29
     5f8:	cd b7       	in	r28, 0x3d	; 61
     5fa:	de b7       	in	r29, 0x3e	; 62
     5fc:	80 93 52 01 	sts	0x0152, r24	; 0x800152 <rs_lcd>
     600:	60 93 4a 01 	sts	0x014A, r22	; 0x80014a <en_lcd>
     604:	40 93 4d 01 	sts	0x014D, r20	; 0x80014d <d0_lcd>
     608:	20 93 4b 01 	sts	0x014B, r18	; 0x80014b <d1_lcd>
     60c:	00 93 4f 01 	sts	0x014F, r16	; 0x80014f <d2_lcd>
     610:	e0 92 51 01 	sts	0x0151, r14	; 0x800151 <d3_lcd>
     614:	c0 92 53 01 	sts	0x0153, r12	; 0x800153 <d4_lcd>
     618:	a0 92 50 01 	sts	0x0150, r10	; 0x800150 <d5_lcd>
     61c:	80 92 4c 01 	sts	0x014C, r8	; 0x80014c <d6_lcd>
     620:	9a 85       	ldd	r25, Y+10	; 0x0a
     622:	90 93 4e 01 	sts	0x014E, r25	; 0x80014e <d7_lcd>
     626:	60 e0       	ldi	r22, 0x00	; 0
     628:	0e 94 79 00 	call	0xf2	; 0xf2 <PIN_MODE>
     62c:	60 e0       	ldi	r22, 0x00	; 0
     62e:	80 91 4a 01 	lds	r24, 0x014A	; 0x80014a <en_lcd>
     632:	0e 94 79 00 	call	0xf2	; 0xf2 <PIN_MODE>
     636:	60 e0       	ldi	r22, 0x00	; 0
     638:	80 91 4d 01 	lds	r24, 0x014D	; 0x80014d <d0_lcd>
     63c:	0e 94 79 00 	call	0xf2	; 0xf2 <PIN_MODE>
     640:	60 e0       	ldi	r22, 0x00	; 0
     642:	80 91 4b 01 	lds	r24, 0x014B	; 0x80014b <d1_lcd>
     646:	0e 94 79 00 	call	0xf2	; 0xf2 <PIN_MODE>
     64a:	60 e0       	ldi	r22, 0x00	; 0
     64c:	80 91 4f 01 	lds	r24, 0x014F	; 0x80014f <d2_lcd>
     650:	0e 94 79 00 	call	0xf2	; 0xf2 <PIN_MODE>
     654:	60 e0       	ldi	r22, 0x00	; 0
     656:	80 91 51 01 	lds	r24, 0x0151	; 0x800151 <d3_lcd>
     65a:	0e 94 79 00 	call	0xf2	; 0xf2 <PIN_MODE>
     65e:	60 e0       	ldi	r22, 0x00	; 0
     660:	80 91 53 01 	lds	r24, 0x0153	; 0x800153 <d4_lcd>
     664:	0e 94 79 00 	call	0xf2	; 0xf2 <PIN_MODE>
     668:	60 e0       	ldi	r22, 0x00	; 0
     66a:	80 91 50 01 	lds	r24, 0x0150	; 0x800150 <d5_lcd>
     66e:	0e 94 79 00 	call	0xf2	; 0xf2 <PIN_MODE>
     672:	60 e0       	ldi	r22, 0x00	; 0
     674:	80 91 4c 01 	lds	r24, 0x014C	; 0x80014c <d6_lcd>
     678:	0e 94 79 00 	call	0xf2	; 0xf2 <PIN_MODE>
     67c:	60 e0       	ldi	r22, 0x00	; 0
     67e:	80 91 4e 01 	lds	r24, 0x014E	; 0x80014e <d7_lcd>
     682:	0e 94 79 00 	call	0xf2	; 0xf2 <PIN_MODE>
     686:	8f e5       	ldi	r24, 0x5F	; 95
     688:	9a ee       	ldi	r25, 0xEA	; 234
     68a:	01 97       	sbiw	r24, 0x01	; 1
     68c:	f1 f7       	brne	.-4      	; 0x68a <lcd_begin+0xa0>
     68e:	00 c0       	rjmp	.+0      	; 0x690 <lcd_begin+0xa6>
     690:	00 00       	nop
     692:	88 e3       	ldi	r24, 0x38	; 56
     694:	0e 94 98 02 	call	0x530	; 0x530 <lcd_command>
     698:	8f e1       	ldi	r24, 0x1F	; 31
     69a:	9e e4       	ldi	r25, 0x4E	; 78
     69c:	01 97       	sbiw	r24, 0x01	; 1
     69e:	f1 f7       	brne	.-4      	; 0x69c <lcd_begin+0xb2>
     6a0:	00 c0       	rjmp	.+0      	; 0x6a2 <lcd_begin+0xb8>
     6a2:	00 00       	nop
     6a4:	0e 94 eb 02 	call	0x5d6	; 0x5d6 <lcd_display_on>
     6a8:	8f ef       	ldi	r24, 0xFF	; 255
     6aa:	9c e7       	ldi	r25, 0x7C	; 124
     6ac:	01 97       	sbiw	r24, 0x01	; 1
     6ae:	f1 f7       	brne	.-4      	; 0x6ac <lcd_begin+0xc2>
     6b0:	00 c0       	rjmp	.+0      	; 0x6b2 <lcd_begin+0xc8>
     6b2:	00 00       	nop
     6b4:	86 e0       	ldi	r24, 0x06	; 6
     6b6:	0e 94 98 02 	call	0x530	; 0x530 <lcd_command>
     6ba:	8f e3       	ldi	r24, 0x3F	; 63
     6bc:	9c e9       	ldi	r25, 0x9C	; 156
     6be:	01 97       	sbiw	r24, 0x01	; 1
     6c0:	f1 f7       	brne	.-4      	; 0x6be <lcd_begin+0xd4>
     6c2:	00 c0       	rjmp	.+0      	; 0x6c4 <lcd_begin+0xda>
     6c4:	00 00       	nop
     6c6:	0e 94 e1 02 	call	0x5c2	; 0x5c2 <lcd_clear>
     6ca:	8f ef       	ldi	r24, 0xFF	; 255
     6cc:	9c e7       	ldi	r25, 0x7C	; 124
     6ce:	01 97       	sbiw	r24, 0x01	; 1
     6d0:	f1 f7       	brne	.-4      	; 0x6ce <lcd_begin+0xe4>
     6d2:	00 c0       	rjmp	.+0      	; 0x6d4 <lcd_begin+0xea>
     6d4:	00 00       	nop
     6d6:	df 91       	pop	r29
     6d8:	cf 91       	pop	r28
     6da:	0f 91       	pop	r16
     6dc:	ef 90       	pop	r14
     6de:	cf 90       	pop	r12
     6e0:	af 90       	pop	r10
     6e2:	8f 90       	pop	r8
     6e4:	08 95       	ret

000006e6 <lcd_write_char>:
     6e6:	cf 93       	push	r28
     6e8:	c8 2f       	mov	r28, r24
     6ea:	68 2f       	mov	r22, r24
     6ec:	61 70       	andi	r22, 0x01	; 1
     6ee:	80 91 4d 01 	lds	r24, 0x014D	; 0x80014d <d0_lcd>
     6f2:	0e 94 d8 01 	call	0x3b0	; 0x3b0 <DIGITAL_WRITE>
     6f6:	6c 2f       	mov	r22, r28
     6f8:	62 70       	andi	r22, 0x02	; 2
     6fa:	80 91 4b 01 	lds	r24, 0x014B	; 0x80014b <d1_lcd>
     6fe:	0e 94 d8 01 	call	0x3b0	; 0x3b0 <DIGITAL_WRITE>
     702:	6c 2f       	mov	r22, r28
     704:	64 70       	andi	r22, 0x04	; 4
     706:	80 91 4f 01 	lds	r24, 0x014F	; 0x80014f <d2_lcd>
     70a:	0e 94 d8 01 	call	0x3b0	; 0x3b0 <DIGITAL_WRITE>
     70e:	6c 2f       	mov	r22, r28
     710:	68 70       	andi	r22, 0x08	; 8
     712:	80 91 51 01 	lds	r24, 0x0151	; 0x800151 <d3_lcd>
     716:	0e 94 d8 01 	call	0x3b0	; 0x3b0 <DIGITAL_WRITE>
     71a:	6c 2f       	mov	r22, r28
     71c:	60 71       	andi	r22, 0x10	; 16
     71e:	80 91 53 01 	lds	r24, 0x0153	; 0x800153 <d4_lcd>
     722:	0e 94 d8 01 	call	0x3b0	; 0x3b0 <DIGITAL_WRITE>
     726:	6c 2f       	mov	r22, r28
     728:	60 72       	andi	r22, 0x20	; 32
     72a:	80 91 50 01 	lds	r24, 0x0150	; 0x800150 <d5_lcd>
     72e:	0e 94 d8 01 	call	0x3b0	; 0x3b0 <DIGITAL_WRITE>
     732:	6c 2f       	mov	r22, r28
     734:	60 74       	andi	r22, 0x40	; 64
     736:	80 91 4c 01 	lds	r24, 0x014C	; 0x80014c <d6_lcd>
     73a:	0e 94 d8 01 	call	0x3b0	; 0x3b0 <DIGITAL_WRITE>
     73e:	6c 2f       	mov	r22, r28
     740:	60 78       	andi	r22, 0x80	; 128
     742:	80 91 4e 01 	lds	r24, 0x014E	; 0x80014e <d7_lcd>
     746:	0e 94 d8 01 	call	0x3b0	; 0x3b0 <DIGITAL_WRITE>
     74a:	61 e0       	ldi	r22, 0x01	; 1
     74c:	80 91 52 01 	lds	r24, 0x0152	; 0x800152 <rs_lcd>
     750:	0e 94 d8 01 	call	0x3b0	; 0x3b0 <DIGITAL_WRITE>
     754:	61 e0       	ldi	r22, 0x01	; 1
     756:	80 91 4a 01 	lds	r24, 0x014A	; 0x80014a <en_lcd>
     75a:	0e 94 d8 01 	call	0x3b0	; 0x3b0 <DIGITAL_WRITE>
     75e:	8f e7       	ldi	r24, 0x7F	; 127
     760:	9e e3       	ldi	r25, 0x3E	; 62
     762:	01 97       	sbiw	r24, 0x01	; 1
     764:	f1 f7       	brne	.-4      	; 0x762 <lcd_write_char+0x7c>
     766:	00 c0       	rjmp	.+0      	; 0x768 <lcd_write_char+0x82>
     768:	00 00       	nop
     76a:	60 e0       	ldi	r22, 0x00	; 0
     76c:	80 91 4a 01 	lds	r24, 0x014A	; 0x80014a <en_lcd>
     770:	0e 94 d8 01 	call	0x3b0	; 0x3b0 <DIGITAL_WRITE>
     774:	8f e3       	ldi	r24, 0x3F	; 63
     776:	9f e1       	ldi	r25, 0x1F	; 31
     778:	01 97       	sbiw	r24, 0x01	; 1
     77a:	f1 f7       	brne	.-4      	; 0x778 <lcd_write_char+0x92>
     77c:	00 c0       	rjmp	.+0      	; 0x77e <lcd_write_char+0x98>
     77e:	00 00       	nop
     780:	cf 91       	pop	r28
     782:	08 95       	ret

00000784 <lcd_print>:
     784:	cf 93       	push	r28
     786:	df 93       	push	r29
     788:	ec 01       	movw	r28, r24
     78a:	03 c0       	rjmp	.+6      	; 0x792 <lcd_print+0xe>
     78c:	0e 94 73 03 	call	0x6e6	; 0x6e6 <lcd_write_char>
     790:	21 96       	adiw	r28, 0x01	; 1
     792:	88 81       	ld	r24, Y
     794:	81 11       	cpse	r24, r1
     796:	fa cf       	rjmp	.-12     	; 0x78c <lcd_print+0x8>
     798:	df 91       	pop	r29
     79a:	cf 91       	pop	r28
     79c:	08 95       	ret

0000079e <lcd_setcursor>:
     79e:	18 16       	cp	r1, r24
     7a0:	0c f0       	brlt	.+2      	; 0x7a4 <lcd_setcursor+0x6>
     7a2:	81 e0       	ldi	r24, 0x01	; 1
     7a4:	83 30       	cpi	r24, 0x03	; 3
     7a6:	0c f0       	brlt	.+2      	; 0x7aa <lcd_setcursor+0xc>
     7a8:	82 e0       	ldi	r24, 0x02	; 2
     7aa:	16 16       	cp	r1, r22
     7ac:	0c f0       	brlt	.+2      	; 0x7b0 <lcd_setcursor+0x12>
     7ae:	61 e0       	ldi	r22, 0x01	; 1
     7b0:	61 31       	cpi	r22, 0x11	; 17
     7b2:	0c f0       	brlt	.+2      	; 0x7b6 <lcd_setcursor+0x18>
     7b4:	60 e1       	ldi	r22, 0x10	; 16
     7b6:	81 30       	cpi	r24, 0x01	; 1
     7b8:	19 f4       	brne	.+6      	; 0x7c0 <lcd_setcursor+0x22>
     7ba:	8f ef       	ldi	r24, 0xFF	; 255
     7bc:	86 0f       	add	r24, r22
     7be:	02 c0       	rjmp	.+4      	; 0x7c4 <lcd_setcursor+0x26>
     7c0:	8f e3       	ldi	r24, 0x3F	; 63
     7c2:	86 0f       	add	r24, r22
     7c4:	80 68       	ori	r24, 0x80	; 128
     7c6:	0e 94 98 02 	call	0x530	; 0x530 <lcd_command>
     7ca:	08 95       	ret

000007cc <InitTimer4>:
	TWI_STOP();
	return 0;
}

void InitTimer4() {
	TCCR4A = 0;						// Normal port operation of OC4A/OC4B
     7cc:	10 92 a0 00 	sts	0x00A0, r1	; 0x8000a0 <__TEXT_REGION_LENGTH__+0x7f80a0>
	TCCR4B |= (1<<WGM42);			// Mode 4: CTC with OCR4A as TOP
     7d0:	e1 ea       	ldi	r30, 0xA1	; 161
     7d2:	f0 e0       	ldi	r31, 0x00	; 0
     7d4:	80 81       	ld	r24, Z
     7d6:	88 60       	ori	r24, 0x08	; 8
     7d8:	80 83       	st	Z, r24
	TCCR4B |= (1<<CS42 | 1<<CS40);	// Prescaler /1024.
     7da:	80 81       	ld	r24, Z
     7dc:	85 60       	ori	r24, 0x05	; 5
     7de:	80 83       	st	Z, r24
	TIMSK4 |= (1<<OCIE4A);			// Enable interrupt
     7e0:	e2 e7       	ldi	r30, 0x72	; 114
     7e2:	f0 e0       	ldi	r31, 0x00	; 0
     7e4:	80 81       	ld	r24, Z
     7e6:	82 60       	ori	r24, 0x02	; 2
     7e8:	80 83       	st	Z, r24
	OCR4A = 15623;					// Frequency: 1 Hz (no output compare)
     7ea:	87 e0       	ldi	r24, 0x07	; 7
     7ec:	9d e3       	ldi	r25, 0x3D	; 61
     7ee:	90 93 a9 00 	sts	0x00A9, r25	; 0x8000a9 <__TEXT_REGION_LENGTH__+0x7f80a9>
     7f2:	80 93 a8 00 	sts	0x00A8, r24	; 0x8000a8 <__TEXT_REGION_LENGTH__+0x7f80a8>
     7f6:	08 95       	ret

000007f8 <Init_TWI>:
}

void Init_TWI() {
	TWSR0 &= ~(1<<TWPS0);
     7f8:	e9 eb       	ldi	r30, 0xB9	; 185
     7fa:	f0 e0       	ldi	r31, 0x00	; 0
     7fc:	80 81       	ld	r24, Z
     7fe:	8e 7f       	andi	r24, 0xFE	; 254
     800:	80 83       	st	Z, r24
	TWSR0 &= ~(1<<TWPS1);
     802:	80 81       	ld	r24, Z
     804:	8d 7f       	andi	r24, 0xFD	; 253
     806:	80 83       	st	Z, r24
	TWBR0 = 72;
     808:	88 e4       	ldi	r24, 0x48	; 72
     80a:	80 93 b8 00 	sts	0x00B8, r24	; 0x8000b8 <__TEXT_REGION_LENGTH__+0x7f80b8>
	TWCR0 = (1<<TWEN);
     80e:	84 e0       	ldi	r24, 0x04	; 4
     810:	80 93 bc 00 	sts	0x00BC, r24	; 0x8000bc <__TEXT_REGION_LENGTH__+0x7f80bc>
     814:	08 95       	ret

00000816 <TWI_START>:

void TWI_START() {
	/* (1) The TWI hardware checks if the bus is available, and generates a START condition on the bus if it is free.
	*  (2) The TWEN bit enables TWI operation and activates the TWI interface.
	*  (3) This bit is set by hardware when the TWI has finished its current job and expects application software response. */
	TWCR0 = (1<<TWSTA) | (1<<TWEN) | (1<<TWINT);	// (1) | (2) | (3)
     816:	84 ea       	ldi	r24, 0xA4	; 164
     818:	80 93 bc 00 	sts	0x00BC, r24	; 0x8000bc <__TEXT_REGION_LENGTH__+0x7f80bc>
     81c:	08 95       	ret

0000081e <TWI_STOP>:

void TWI_STOP() {
	/* (1) Writing the TWSTO bit to one in Master mode will generate a STOP condition on the 2-wire Serial Bus TWI.
	*  (2) The TWEN bit enables TWI operation and activates the TWI interface.
	*  (3) This bit is set by hardware when the TWI has finished its current job and expects application software response. */
	TWCR0 |= (1<<TWSTO) | (1<<TWEN) | (1<<TWINT);	// (1) | (2) | (3)
     81e:	ec eb       	ldi	r30, 0xBC	; 188
     820:	f0 e0       	ldi	r31, 0x00	; 0
     822:	80 81       	ld	r24, Z
     824:	84 69       	ori	r24, 0x94	; 148
     826:	80 83       	st	Z, r24
	while (TWCR0 & (1<<TWSTO));
     828:	80 91 bc 00 	lds	r24, 0x00BC	; 0x8000bc <__TEXT_REGION_LENGTH__+0x7f80bc>
     82c:	84 fd       	sbrc	r24, 4
     82e:	fc cf       	rjmp	.-8      	; 0x828 <TWI_STOP+0xa>
}
     830:	08 95       	ret

00000832 <TWI_WriteData>:
	}
}



uint8_t TWI_WriteData(uint8_t twi_address, uint8_t twi_load) {
     832:	cf 93       	push	r28
     834:	df 93       	push	r29
     836:	c8 2f       	mov	r28, r24
     838:	d6 2f       	mov	r29, r22
	TWI_START();
     83a:	0e 94 0b 04 	call	0x816	; 0x816 <TWI_START>
	while(!(TWCR0 & (1<<TWINT)));
     83e:	80 91 bc 00 	lds	r24, 0x00BC	; 0x8000bc <__TEXT_REGION_LENGTH__+0x7f80bc>
     842:	88 23       	and	r24, r24
     844:	e4 f7       	brge	.-8      	; 0x83e <TWI_WriteData+0xc>
	if ((TWSR0 & 0xF8) != STATUS_START)	{
     846:	80 91 b9 00 	lds	r24, 0x00B9	; 0x8000b9 <__TEXT_REGION_LENGTH__+0x7f80b9>
     84a:	88 7f       	andi	r24, 0xF8	; 248
     84c:	88 30       	cpi	r24, 0x08	; 8
     84e:	21 f0       	breq	.+8      	; 0x858 <TWI_WriteData+0x26>
		TWI_STOP();
     850:	0e 94 0f 04 	call	0x81e	; 0x81e <TWI_STOP>
		return 1;
     854:	81 e0       	ldi	r24, 0x01	; 1
     856:	28 c0       	rjmp	.+80     	; 0x8a8 <TWI_WriteData+0x76>
	}
	
	TWDR0 = (twi_address << 1) | 0;
     858:	cc 0f       	add	r28, r28
     85a:	c0 93 bb 00 	sts	0x00BB, r28	; 0x8000bb <__TEXT_REGION_LENGTH__+0x7f80bb>
	TWCR0 = (1<<TWEN) | (1<<TWINT);
     85e:	84 e8       	ldi	r24, 0x84	; 132
     860:	80 93 bc 00 	sts	0x00BC, r24	; 0x8000bc <__TEXT_REGION_LENGTH__+0x7f80bc>
	while(!(TWCR0 & (1<<TWINT)));
     864:	80 91 bc 00 	lds	r24, 0x00BC	; 0x8000bc <__TEXT_REGION_LENGTH__+0x7f80bc>
     868:	88 23       	and	r24, r24
     86a:	e4 f7       	brge	.-8      	; 0x864 <TWI_WriteData+0x32>
	if ((TWSR0 & 0xF8) != STATUS_MT_SLA_ACK)	{
     86c:	80 91 b9 00 	lds	r24, 0x00B9	; 0x8000b9 <__TEXT_REGION_LENGTH__+0x7f80b9>
     870:	88 7f       	andi	r24, 0xF8	; 248
     872:	88 31       	cpi	r24, 0x18	; 24
     874:	21 f0       	breq	.+8      	; 0x87e <TWI_WriteData+0x4c>
		TWI_STOP();
     876:	0e 94 0f 04 	call	0x81e	; 0x81e <TWI_STOP>
		return 1;
     87a:	81 e0       	ldi	r24, 0x01	; 1
     87c:	15 c0       	rjmp	.+42     	; 0x8a8 <TWI_WriteData+0x76>
	}
	
	TWDR0 = twi_load;
     87e:	d0 93 bb 00 	sts	0x00BB, r29	; 0x8000bb <__TEXT_REGION_LENGTH__+0x7f80bb>
	TWCR0 = (1<<TWEN) | (1<<TWINT);
     882:	84 e8       	ldi	r24, 0x84	; 132
     884:	80 93 bc 00 	sts	0x00BC, r24	; 0x8000bc <__TEXT_REGION_LENGTH__+0x7f80bc>
	while(!(TWCR0 & (1<<TWINT)));
     888:	80 91 bc 00 	lds	r24, 0x00BC	; 0x8000bc <__TEXT_REGION_LENGTH__+0x7f80bc>
     88c:	88 23       	and	r24, r24
     88e:	e4 f7       	brge	.-8      	; 0x888 <TWI_WriteData+0x56>
	if ((TWSR0 & 0xF8) != STATUS_MT_DATA_ACK)	{
     890:	80 91 b9 00 	lds	r24, 0x00B9	; 0x8000b9 <__TEXT_REGION_LENGTH__+0x7f80b9>
     894:	88 7f       	andi	r24, 0xF8	; 248
     896:	88 32       	cpi	r24, 0x28	; 40
     898:	21 f0       	breq	.+8      	; 0x8a2 <TWI_WriteData+0x70>
		TWI_STOP();
     89a:	0e 94 0f 04 	call	0x81e	; 0x81e <TWI_STOP>
		return 1;
     89e:	81 e0       	ldi	r24, 0x01	; 1
     8a0:	03 c0       	rjmp	.+6      	; 0x8a8 <TWI_WriteData+0x76>
	}
	
	TWI_STOP();
     8a2:	0e 94 0f 04 	call	0x81e	; 0x81e <TWI_STOP>
	return 0;
     8a6:	80 e0       	ldi	r24, 0x00	; 0
}
     8a8:	df 91       	pop	r29
     8aa:	cf 91       	pop	r28
     8ac:	08 95       	ret

000008ae <TWI_ReadData>:

uint8_t TWI_ReadData(uint8_t twi_address, uint8_t data_address, uint8_t* data_pointer) {
     8ae:	0f 93       	push	r16
     8b0:	1f 93       	push	r17
     8b2:	cf 93       	push	r28
     8b4:	df 93       	push	r29
     8b6:	18 2f       	mov	r17, r24
     8b8:	06 2f       	mov	r16, r22
     8ba:	ea 01       	movw	r28, r20
	TWI_START();
     8bc:	0e 94 0b 04 	call	0x816	; 0x816 <TWI_START>
	while (!(TWCR0 & (1<<TWINT)));
     8c0:	80 91 bc 00 	lds	r24, 0x00BC	; 0x8000bc <__TEXT_REGION_LENGTH__+0x7f80bc>
     8c4:	88 23       	and	r24, r24
     8c6:	e4 f7       	brge	.-8      	; 0x8c0 <TWI_ReadData+0x12>
	if ((TWSR0 & 0xF8) != STATUS_START)	{
     8c8:	80 91 b9 00 	lds	r24, 0x00B9	; 0x8000b9 <__TEXT_REGION_LENGTH__+0x7f80b9>
     8cc:	88 7f       	andi	r24, 0xF8	; 248
     8ce:	88 30       	cpi	r24, 0x08	; 8
     8d0:	21 f0       	breq	.+8      	; 0x8da <TWI_ReadData+0x2c>
		TWI_STOP();
     8d2:	0e 94 0f 04 	call	0x81e	; 0x81e <TWI_STOP>
		return 1;
     8d6:	81 e0       	ldi	r24, 0x01	; 1
     8d8:	62 c0       	rjmp	.+196    	; 0x99e <__stack+0x9f>
	}
	
	TWDR0 = (twi_address << 1) | 0;
     8da:	81 2f       	mov	r24, r17
     8dc:	88 0f       	add	r24, r24
     8de:	80 93 bb 00 	sts	0x00BB, r24	; 0x8000bb <__TEXT_REGION_LENGTH__+0x7f80bb>
	TWCR0 = (1<<TWEN) | (1<<TWINT);
     8e2:	84 e8       	ldi	r24, 0x84	; 132
     8e4:	80 93 bc 00 	sts	0x00BC, r24	; 0x8000bc <__TEXT_REGION_LENGTH__+0x7f80bc>
	while(!(TWCR0 & (1<<TWINT)));
     8e8:	80 91 bc 00 	lds	r24, 0x00BC	; 0x8000bc <__TEXT_REGION_LENGTH__+0x7f80bc>
     8ec:	88 23       	and	r24, r24
     8ee:	e4 f7       	brge	.-8      	; 0x8e8 <TWI_ReadData+0x3a>
	if ((TWSR0 & 0xF8) != STATUS_MT_SLA_ACK)	{
     8f0:	80 91 b9 00 	lds	r24, 0x00B9	; 0x8000b9 <__TEXT_REGION_LENGTH__+0x7f80b9>
     8f4:	88 7f       	andi	r24, 0xF8	; 248
     8f6:	88 31       	cpi	r24, 0x18	; 24
     8f8:	21 f0       	breq	.+8      	; 0x902 <__stack+0x3>
		TWI_STOP();
     8fa:	0e 94 0f 04 	call	0x81e	; 0x81e <TWI_STOP>
		return 1;
     8fe:	81 e0       	ldi	r24, 0x01	; 1
     900:	4e c0       	rjmp	.+156    	; 0x99e <__stack+0x9f>
	}
	
	TWDR0 = data_address;
     902:	00 93 bb 00 	sts	0x00BB, r16	; 0x8000bb <__TEXT_REGION_LENGTH__+0x7f80bb>
	TWCR0 = (1<<TWEN) | (1<<TWINT);
     906:	84 e8       	ldi	r24, 0x84	; 132
     908:	80 93 bc 00 	sts	0x00BC, r24	; 0x8000bc <__TEXT_REGION_LENGTH__+0x7f80bc>
	while(!(TWCR0 & (1<<TWINT)));
     90c:	80 91 bc 00 	lds	r24, 0x00BC	; 0x8000bc <__TEXT_REGION_LENGTH__+0x7f80bc>
     910:	88 23       	and	r24, r24
     912:	e4 f7       	brge	.-8      	; 0x90c <__stack+0xd>
	if ((TWSR0 & 0xF8) != STATUS_MT_DATA_ACK)	{
     914:	80 91 b9 00 	lds	r24, 0x00B9	; 0x8000b9 <__TEXT_REGION_LENGTH__+0x7f80b9>
     918:	88 7f       	andi	r24, 0xF8	; 248
     91a:	88 32       	cpi	r24, 0x28	; 40
     91c:	21 f0       	breq	.+8      	; 0x926 <__stack+0x27>
		TWI_STOP();
     91e:	0e 94 0f 04 	call	0x81e	; 0x81e <TWI_STOP>
		return 1;
     922:	81 e0       	ldi	r24, 0x01	; 1
     924:	3c c0       	rjmp	.+120    	; 0x99e <__stack+0x9f>
	}
	
	TWI_START();
     926:	0e 94 0b 04 	call	0x816	; 0x816 <TWI_START>
	while (!(TWCR0 & (1<<TWINT)));
     92a:	80 91 bc 00 	lds	r24, 0x00BC	; 0x8000bc <__TEXT_REGION_LENGTH__+0x7f80bc>
     92e:	88 23       	and	r24, r24
     930:	e4 f7       	brge	.-8      	; 0x92a <__stack+0x2b>
	if ((TWSR0 & 0xF8) != STATUS_REP_START)	{
     932:	80 91 b9 00 	lds	r24, 0x00B9	; 0x8000b9 <__TEXT_REGION_LENGTH__+0x7f80b9>
     936:	88 7f       	andi	r24, 0xF8	; 248
     938:	80 31       	cpi	r24, 0x10	; 16
     93a:	21 f0       	breq	.+8      	; 0x944 <__stack+0x45>
		TWI_STOP();
     93c:	0e 94 0f 04 	call	0x81e	; 0x81e <TWI_STOP>
		return 1;
     940:	81 e0       	ldi	r24, 0x01	; 1
     942:	2d c0       	rjmp	.+90     	; 0x99e <__stack+0x9f>
	}
	
	TWDR0 = (twi_address << 1) | 1;
     944:	81 2f       	mov	r24, r17
     946:	90 e0       	ldi	r25, 0x00	; 0
     948:	88 0f       	add	r24, r24
     94a:	99 1f       	adc	r25, r25
     94c:	81 60       	ori	r24, 0x01	; 1
     94e:	80 93 bb 00 	sts	0x00BB, r24	; 0x8000bb <__TEXT_REGION_LENGTH__+0x7f80bb>
	TWCR0 = (1<<TWEN) | (1<<TWINT);
     952:	84 e8       	ldi	r24, 0x84	; 132
     954:	80 93 bc 00 	sts	0x00BC, r24	; 0x8000bc <__TEXT_REGION_LENGTH__+0x7f80bc>
	while(!(TWCR0 & (1<<TWINT)));
     958:	80 91 bc 00 	lds	r24, 0x00BC	; 0x8000bc <__TEXT_REGION_LENGTH__+0x7f80bc>
     95c:	88 23       	and	r24, r24
     95e:	e4 f7       	brge	.-8      	; 0x958 <__stack+0x59>
	if ((TWSR0 & 0xF8) != STATUS_MR_SLA_ACK) {
     960:	80 91 b9 00 	lds	r24, 0x00B9	; 0x8000b9 <__TEXT_REGION_LENGTH__+0x7f80b9>
     964:	88 7f       	andi	r24, 0xF8	; 248
     966:	80 34       	cpi	r24, 0x40	; 64
     968:	21 f0       	breq	.+8      	; 0x972 <__stack+0x73>
		TWI_STOP();
     96a:	0e 94 0f 04 	call	0x81e	; 0x81e <TWI_STOP>
		return 1;
     96e:	81 e0       	ldi	r24, 0x01	; 1
     970:	16 c0       	rjmp	.+44     	; 0x99e <__stack+0x9f>
	}
		
	TWCR0 = (1<<TWEN) | (1<<TWINT);
     972:	84 e8       	ldi	r24, 0x84	; 132
     974:	80 93 bc 00 	sts	0x00BC, r24	; 0x8000bc <__TEXT_REGION_LENGTH__+0x7f80bc>
	while(!(TWCR0 & (1<<TWINT)));
     978:	80 91 bc 00 	lds	r24, 0x00BC	; 0x8000bc <__TEXT_REGION_LENGTH__+0x7f80bc>
     97c:	88 23       	and	r24, r24
     97e:	e4 f7       	brge	.-8      	; 0x978 <__stack+0x79>
	if ((TWSR0 & 0xF8) != STATUS_MR_DATA_NACK)	{	// Other does not verify this
     980:	80 91 b9 00 	lds	r24, 0x00B9	; 0x8000b9 <__TEXT_REGION_LENGTH__+0x7f80b9>
     984:	88 7f       	andi	r24, 0xF8	; 248
     986:	88 35       	cpi	r24, 0x58	; 88
     988:	21 f0       	breq	.+8      	; 0x992 <__stack+0x93>
		TWI_STOP();
     98a:	0e 94 0f 04 	call	0x81e	; 0x81e <TWI_STOP>
		return 1;
     98e:	81 e0       	ldi	r24, 0x01	; 1
     990:	06 c0       	rjmp	.+12     	; 0x99e <__stack+0x9f>
	}
	*data_pointer = TWDR0;
     992:	80 91 bb 00 	lds	r24, 0x00BB	; 0x8000bb <__TEXT_REGION_LENGTH__+0x7f80bb>
     996:	88 83       	st	Y, r24
	
	TWI_STOP();
     998:	0e 94 0f 04 	call	0x81e	; 0x81e <TWI_STOP>
	return 0;
     99c:	80 e0       	ldi	r24, 0x00	; 0
}
     99e:	df 91       	pop	r29
     9a0:	cf 91       	pop	r28
     9a2:	1f 91       	pop	r17
     9a4:	0f 91       	pop	r16
     9a6:	08 95       	ret

000009a8 <main>:
uint8_t received_data_gas;
uint8_t received_data_temperature;

int main(void)
{
    cli();
     9a8:	f8 94       	cli
	Init_TWI();
     9aa:	0e 94 fc 03 	call	0x7f8	; 0x7f8 <Init_TWI>
	InitTimer4();
     9ae:	0e 94 e6 03 	call	0x7cc	; 0x7cc <InitTimer4>
	SerialBegin(Asynch, 9600, NormalSpeed, True, False);
     9b2:	e1 2c       	mov	r14, r1
     9b4:	01 e0       	ldi	r16, 0x01	; 1
     9b6:	20 e0       	ldi	r18, 0x00	; 0
     9b8:	40 e8       	ldi	r20, 0x80	; 128
     9ba:	55 e2       	ldi	r21, 0x25	; 37
     9bc:	60 e0       	ldi	r22, 0x00	; 0
     9be:	70 e0       	ldi	r23, 0x00	; 0
     9c0:	80 e0       	ldi	r24, 0x00	; 0
     9c2:	0e 94 82 06 	call	0xd04	; 0xd04 <SerialBegin>
	lcd_begin(D11, D10, D9, D8, D7, D6, D5, D4, D3, D2);
     9c6:	8e e0       	ldi	r24, 0x0E	; 14
     9c8:	8f 93       	push	r24
     9ca:	0f 2e       	mov	r0, r31
     9cc:	ff e0       	ldi	r31, 0x0F	; 15
     9ce:	8f 2e       	mov	r8, r31
     9d0:	f0 2d       	mov	r31, r0
     9d2:	68 94       	set
     9d4:	aa 24       	eor	r10, r10
     9d6:	a4 f8       	bld	r10, 4
     9d8:	0f 2e       	mov	r0, r31
     9da:	f1 e1       	ldi	r31, 0x11	; 17
     9dc:	cf 2e       	mov	r12, r31
     9de:	f0 2d       	mov	r31, r0
     9e0:	0f 2e       	mov	r0, r31
     9e2:	f2 e1       	ldi	r31, 0x12	; 18
     9e4:	ef 2e       	mov	r14, r31
     9e6:	f0 2d       	mov	r31, r0
     9e8:	03 e1       	ldi	r16, 0x13	; 19
     9ea:	20 e0       	ldi	r18, 0x00	; 0
     9ec:	41 e0       	ldi	r20, 0x01	; 1
     9ee:	62 e0       	ldi	r22, 0x02	; 2
     9f0:	83 e0       	ldi	r24, 0x03	; 3
     9f2:	0e 94 f5 02 	call	0x5ea	; 0x5ea <lcd_begin>
	lcd_clear();
     9f6:	0e 94 e1 02 	call	0x5c2	; 0x5c2 <lcd_clear>
	lcd_setcursor(1, 1);
     9fa:	61 e0       	ldi	r22, 0x01	; 1
     9fc:	81 e0       	ldi	r24, 0x01	; 1
     9fe:	0e 94 cf 03 	call	0x79e	; 0x79e <lcd_setcursor>
	lcd_print("x42:0");
     a02:	86 e0       	ldi	r24, 0x06	; 6
     a04:	91 e0       	ldi	r25, 0x01	; 1
     a06:	0e 94 c2 03 	call	0x784	; 0x784 <lcd_print>
	lcd_setcursor(1, 9);
     a0a:	69 e0       	ldi	r22, 0x09	; 9
     a0c:	81 e0       	ldi	r24, 0x01	; 1
     a0e:	0e 94 cf 03 	call	0x79e	; 0x79e <lcd_setcursor>
	lcd_print("x36:0");
     a12:	8c e0       	ldi	r24, 0x0C	; 12
     a14:	91 e0       	ldi	r25, 0x01	; 1
     a16:	0e 94 c2 03 	call	0x784	; 0x784 <lcd_print>
	lcd_setcursor(2, 1);
     a1a:	61 e0       	ldi	r22, 0x01	; 1
     a1c:	82 e0       	ldi	r24, 0x02	; 2
     a1e:	0e 94 cf 03 	call	0x79e	; 0x79e <lcd_setcursor>
	lcd_print("x49:0");
     a22:	82 e1       	ldi	r24, 0x12	; 18
     a24:	91 e0       	ldi	r25, 0x01	; 1
     a26:	0e 94 c2 03 	call	0x784	; 0x784 <lcd_print>
	sei();
     a2a:	78 94       	sei
	#else
		//round up by default
		__ticks_dc = (uint32_t)(ceil(fabs(__tmp)));
	#endif

	__builtin_avr_delay_cycles(__ticks_dc);
     a2c:	8f e3       	ldi	r24, 0x3F	; 63
     a2e:	9c e9       	ldi	r25, 0x9C	; 156
     a30:	01 97       	sbiw	r24, 0x01	; 1
     a32:	f1 f7       	brne	.-4      	; 0xa30 <main+0x88>
     a34:	00 c0       	rjmp	.+0      	; 0xa36 <main+0x8e>
     a36:	00 00       	nop
     a38:	0f 90       	pop	r0
						
	_delay_ms(10);
	
    while (1) 
    {	
		if (fan_command != 0 && !twi_busy) {
     a3a:	80 91 49 01 	lds	r24, 0x0149	; 0x800149 <fan_command>
     a3e:	88 23       	and	r24, r24
     a40:	e1 f0       	breq	.+56     	; 0xa7a <main+0xd2>
     a42:	80 91 47 01 	lds	r24, 0x0147	; 0x800147 <twi_busy>
     a46:	81 11       	cpse	r24, r1
     a48:	18 c0       	rjmp	.+48     	; 0xa7a <main+0xd2>
			if (fan_command == 1) {
     a4a:	80 91 49 01 	lds	r24, 0x0149	; 0x800149 <fan_command>
     a4e:	81 30       	cpi	r24, 0x01	; 1
     a50:	31 f4       	brne	.+12     	; 0xa5e <main+0xb6>
				TWI_WriteData(Slave1_DHT_address, 0xB1);
     a52:	61 eb       	ldi	r22, 0xB1	; 177
     a54:	86 e3       	ldi	r24, 0x36	; 54
     a56:	0e 94 19 04 	call	0x832	; 0x832 <TWI_WriteData>
				fan_command = 0;
     a5a:	10 92 49 01 	sts	0x0149, r1	; 0x800149 <fan_command>
			}
			if (fan_command == 2) {
     a5e:	80 91 49 01 	lds	r24, 0x0149	; 0x800149 <fan_command>
     a62:	82 30       	cpi	r24, 0x02	; 2
     a64:	31 f4       	brne	.+12     	; 0xa72 <main+0xca>
				TWI_WriteData(Slave1_DHT_address, 0xB2);
     a66:	62 eb       	ldi	r22, 0xB2	; 178
     a68:	86 e3       	ldi	r24, 0x36	; 54
     a6a:	0e 94 19 04 	call	0x832	; 0x832 <TWI_WriteData>
				fan_command = 0;
     a6e:	10 92 49 01 	sts	0x0149, r1	; 0x800149 <fan_command>
			}
			fan_command = 0;
     a72:	10 92 49 01 	sts	0x0149, r1	; 0x800149 <fan_command>
			pause_offline = 0;
     a76:	10 92 48 01 	sts	0x0148, r1	; 0x800148 <pause_offline>
		}
		if (!pause_offline && !twi_busy) {
     a7a:	80 91 48 01 	lds	r24, 0x0148	; 0x800148 <pause_offline>
     a7e:	81 11       	cpse	r24, r1
     a80:	dc cf       	rjmp	.-72     	; 0xa3a <main+0x92>
     a82:	80 91 47 01 	lds	r24, 0x0147	; 0x800147 <twi_busy>
     a86:	81 11       	cpse	r24, r1
     a88:	d8 cf       	rjmp	.-80     	; 0xa3a <main+0x92>
			if (update_data) {
     a8a:	80 91 57 01 	lds	r24, 0x0157	; 0x800157 <update_data>
     a8e:	88 23       	and	r24, r24
     a90:	a1 f2       	breq	.-88     	; 0xa3a <main+0x92>
				twi_busy = 1;
     a92:	81 e0       	ldi	r24, 0x01	; 1
     a94:	80 93 47 01 	sts	0x0147, r24	; 0x800147 <twi_busy>
				update_data = 0;
     a98:	10 92 57 01 	sts	0x0157, r1	; 0x800157 <update_data>
     a9c:	8f e3       	ldi	r24, 0x3F	; 63
     a9e:	9f e1       	ldi	r25, 0x1F	; 31
     aa0:	01 97       	sbiw	r24, 0x01	; 1
     aa2:	f1 f7       	brne	.-4      	; 0xaa0 <main+0xf8>
     aa4:	00 c0       	rjmp	.+0      	; 0xaa6 <main+0xfe>
     aa6:	00 00       	nop
				/* Slave 0: sensor MQ-2 in address 0x42 */
				_delay_ms(2);
				if (TWI_ReadData(Slave0_MQ_address, 0xA1, &received_data_gas));
     aa8:	46 e5       	ldi	r20, 0x56	; 86
     aaa:	51 e0       	ldi	r21, 0x01	; 1
     aac:	61 ea       	ldi	r22, 0xA1	; 161
     aae:	82 e4       	ldi	r24, 0x42	; 66
     ab0:	0e 94 57 04 	call	0x8ae	; 0x8ae <TWI_ReadData>
     ab4:	8f e3       	ldi	r24, 0x3F	; 63
     ab6:	9f e1       	ldi	r25, 0x1F	; 31
     ab8:	01 97       	sbiw	r24, 0x01	; 1
     aba:	f1 f7       	brne	.-4      	; 0xab8 <main+0x110>
     abc:	00 c0       	rjmp	.+0      	; 0xabe <main+0x116>
     abe:	00 00       	nop
				_delay_ms(2);
				if (received_data_gas > 100)	TWI_WriteData(Slave0_MQ_address, 0xB2);
     ac0:	80 91 56 01 	lds	r24, 0x0156	; 0x800156 <received_data_gas>
     ac4:	85 36       	cpi	r24, 0x65	; 101
     ac6:	28 f0       	brcs	.+10     	; 0xad2 <main+0x12a>
     ac8:	62 eb       	ldi	r22, 0xB2	; 178
     aca:	82 e4       	ldi	r24, 0x42	; 66
     acc:	0e 94 19 04 	call	0x832	; 0x832 <TWI_WriteData>
     ad0:	04 c0       	rjmp	.+8      	; 0xada <main+0x132>
				else TWI_WriteData(Slave0_MQ_address, 0xB1);
     ad2:	61 eb       	ldi	r22, 0xB1	; 177
     ad4:	82 e4       	ldi	r24, 0x42	; 66
     ad6:	0e 94 19 04 	call	0x832	; 0x832 <TWI_WriteData>
			
				lcd_setcursor(1, 1);
     ada:	61 e0       	ldi	r22, 0x01	; 1
     adc:	81 e0       	ldi	r24, 0x01	; 1
     ade:	0e 94 cf 03 	call	0x79e	; 0x79e <lcd_setcursor>
				lcd_print("x42:");
     ae2:	88 e1       	ldi	r24, 0x18	; 24
     ae4:	91 e0       	ldi	r25, 0x01	; 1
     ae6:	0e 94 c2 03 	call	0x784	; 0x784 <lcd_print>
				lcd_print("    ");
     aea:	8a e2       	ldi	r24, 0x2A	; 42
     aec:	91 e0       	ldi	r25, 0x01	; 1
     aee:	0e 94 c2 03 	call	0x784	; 0x784 <lcd_print>
				lcd_setcursor(1, 5);
     af2:	65 e0       	ldi	r22, 0x05	; 5
     af4:	81 e0       	ldi	r24, 0x01	; 1
     af6:	0e 94 cf 03 	call	0x79e	; 0x79e <lcd_setcursor>
				lcd_print(IntToString(received_data_gas));
     afa:	80 91 56 01 	lds	r24, 0x0156	; 0x800156 <received_data_gas>
     afe:	90 e0       	ldi	r25, 0x00	; 0
     b00:	0e 94 28 07 	call	0xe50	; 0xe50 <IntToString>
     b04:	0e 94 c2 03 	call	0x784	; 0x784 <lcd_print>
     b08:	8f e3       	ldi	r24, 0x3F	; 63
     b0a:	9f e1       	ldi	r25, 0x1F	; 31
     b0c:	01 97       	sbiw	r24, 0x01	; 1
     b0e:	f1 f7       	brne	.-4      	; 0xb0c <main+0x164>
     b10:	00 c0       	rjmp	.+0      	; 0xb12 <main+0x16a>
     b12:	00 00       	nop
			
				/* Slave 1: sensor DHT-11 in address 0x36 */
				_delay_ms(2);
				if (TWI_ReadData(Slave1_DHT_address, 0xA1, &received_data_humidity));
     b14:	48 e5       	ldi	r20, 0x58	; 88
     b16:	51 e0       	ldi	r21, 0x01	; 1
     b18:	61 ea       	ldi	r22, 0xA1	; 161
     b1a:	86 e3       	ldi	r24, 0x36	; 54
     b1c:	0e 94 57 04 	call	0x8ae	; 0x8ae <TWI_ReadData>
     b20:	8f e3       	ldi	r24, 0x3F	; 63
     b22:	9f e1       	ldi	r25, 0x1F	; 31
     b24:	01 97       	sbiw	r24, 0x01	; 1
     b26:	f1 f7       	brne	.-4      	; 0xb24 <main+0x17c>
     b28:	00 c0       	rjmp	.+0      	; 0xb2a <main+0x182>
     b2a:	00 00       	nop
				_delay_ms(2);
				if (received_data_humidity > 80)	TWI_WriteData(Slave1_DHT_address, 0xB2);
     b2c:	80 91 58 01 	lds	r24, 0x0158	; 0x800158 <received_data_humidity>
     b30:	81 35       	cpi	r24, 0x51	; 81
     b32:	28 f0       	brcs	.+10     	; 0xb3e <main+0x196>
     b34:	62 eb       	ldi	r22, 0xB2	; 178
     b36:	86 e3       	ldi	r24, 0x36	; 54
     b38:	0e 94 19 04 	call	0x832	; 0x832 <TWI_WriteData>
     b3c:	04 c0       	rjmp	.+8      	; 0xb46 <main+0x19e>
				else TWI_WriteData(Slave1_DHT_address, 0xB1);
     b3e:	61 eb       	ldi	r22, 0xB1	; 177
     b40:	86 e3       	ldi	r24, 0x36	; 54
     b42:	0e 94 19 04 	call	0x832	; 0x832 <TWI_WriteData>
			
				lcd_setcursor(1, 9);
     b46:	69 e0       	ldi	r22, 0x09	; 9
     b48:	81 e0       	ldi	r24, 0x01	; 1
     b4a:	0e 94 cf 03 	call	0x79e	; 0x79e <lcd_setcursor>
				lcd_print("x36:");
     b4e:	8d e1       	ldi	r24, 0x1D	; 29
     b50:	91 e0       	ldi	r25, 0x01	; 1
     b52:	0e 94 c2 03 	call	0x784	; 0x784 <lcd_print>
				lcd_print("    ");
     b56:	8a e2       	ldi	r24, 0x2A	; 42
     b58:	91 e0       	ldi	r25, 0x01	; 1
     b5a:	0e 94 c2 03 	call	0x784	; 0x784 <lcd_print>
				lcd_setcursor(1, 13);
     b5e:	6d e0       	ldi	r22, 0x0D	; 13
     b60:	81 e0       	ldi	r24, 0x01	; 1
     b62:	0e 94 cf 03 	call	0x79e	; 0x79e <lcd_setcursor>
				lcd_print(IntToString(received_data_humidity));
     b66:	80 91 58 01 	lds	r24, 0x0158	; 0x800158 <received_data_humidity>
     b6a:	90 e0       	ldi	r25, 0x00	; 0
     b6c:	0e 94 28 07 	call	0xe50	; 0xe50 <IntToString>
     b70:	0e 94 c2 03 	call	0x784	; 0x784 <lcd_print>
				lcd_print("%");
     b74:	82 e2       	ldi	r24, 0x22	; 34
     b76:	91 e0       	ldi	r25, 0x01	; 1
     b78:	0e 94 c2 03 	call	0x784	; 0x784 <lcd_print>
     b7c:	8f e3       	ldi	r24, 0x3F	; 63
     b7e:	9f e1       	ldi	r25, 0x1F	; 31
     b80:	01 97       	sbiw	r24, 0x01	; 1
     b82:	f1 f7       	brne	.-4      	; 0xb80 <main+0x1d8>
     b84:	00 c0       	rjmp	.+0      	; 0xb86 <main+0x1de>
     b86:	00 00       	nop
			
				/* Slave 3: LM75 in address 0x49 */
				_delay_ms(2);
				if (TWI_ReadData(0x49, 0x00, &received_data_temperature));
     b88:	44 e5       	ldi	r20, 0x54	; 84
     b8a:	51 e0       	ldi	r21, 0x01	; 1
     b8c:	60 e0       	ldi	r22, 0x00	; 0
     b8e:	89 e4       	ldi	r24, 0x49	; 73
     b90:	0e 94 57 04 	call	0x8ae	; 0x8ae <TWI_ReadData>
     b94:	8f e3       	ldi	r24, 0x3F	; 63
     b96:	9f e1       	ldi	r25, 0x1F	; 31
     b98:	01 97       	sbiw	r24, 0x01	; 1
     b9a:	f1 f7       	brne	.-4      	; 0xb98 <main+0x1f0>
     b9c:	00 c0       	rjmp	.+0      	; 0xb9e <main+0x1f6>
     b9e:	00 00       	nop
				_delay_ms(2);
				if (received_data_temperature > 30)	TWI_WriteData(Slave1_DHT_address, 0xB4);
     ba0:	80 91 54 01 	lds	r24, 0x0154	; 0x800154 <received_data_temperature>
     ba4:	8f 31       	cpi	r24, 0x1F	; 31
     ba6:	28 f0       	brcs	.+10     	; 0xbb2 <main+0x20a>
     ba8:	64 eb       	ldi	r22, 0xB4	; 180
     baa:	86 e3       	ldi	r24, 0x36	; 54
     bac:	0e 94 19 04 	call	0x832	; 0x832 <TWI_WriteData>
     bb0:	04 c0       	rjmp	.+8      	; 0xbba <main+0x212>
				else TWI_WriteData(Slave1_DHT_address, 0xB3);
     bb2:	63 eb       	ldi	r22, 0xB3	; 179
     bb4:	86 e3       	ldi	r24, 0x36	; 54
     bb6:	0e 94 19 04 	call	0x832	; 0x832 <TWI_WriteData>
			
				lcd_setcursor(2, 1);
     bba:	61 e0       	ldi	r22, 0x01	; 1
     bbc:	82 e0       	ldi	r24, 0x02	; 2
     bbe:	0e 94 cf 03 	call	0x79e	; 0x79e <lcd_setcursor>
				lcd_print("x49:");
     bc2:	84 e2       	ldi	r24, 0x24	; 36
     bc4:	91 e0       	ldi	r25, 0x01	; 1
     bc6:	0e 94 c2 03 	call	0x784	; 0x784 <lcd_print>
				lcd_print("     ");
     bca:	89 e2       	ldi	r24, 0x29	; 41
     bcc:	91 e0       	ldi	r25, 0x01	; 1
     bce:	0e 94 c2 03 	call	0x784	; 0x784 <lcd_print>
				lcd_setcursor(2, 5);
     bd2:	65 e0       	ldi	r22, 0x05	; 5
     bd4:	82 e0       	ldi	r24, 0x02	; 2
     bd6:	0e 94 cf 03 	call	0x79e	; 0x79e <lcd_setcursor>
				lcd_print(IntToString(received_data_temperature));
     bda:	80 91 54 01 	lds	r24, 0x0154	; 0x800154 <received_data_temperature>
     bde:	90 e0       	ldi	r25, 0x00	; 0
     be0:	0e 94 28 07 	call	0xe50	; 0xe50 <IntToString>
     be4:	0e 94 c2 03 	call	0x784	; 0x784 <lcd_print>
				lcd_write_char(0xDF);
     be8:	8f ed       	ldi	r24, 0xDF	; 223
     bea:	0e 94 73 03 	call	0x6e6	; 0x6e6 <lcd_write_char>
				lcd_print("C");
     bee:	8f e2       	ldi	r24, 0x2F	; 47
     bf0:	91 e0       	ldi	r25, 0x01	; 1
     bf2:	0e 94 c2 03 	call	0x784	; 0x784 <lcd_print>
				
				twi_busy = 0;
     bf6:	10 92 47 01 	sts	0x0147, r1	; 0x800147 <twi_busy>
     bfa:	1f cf       	rjmp	.-450    	; 0xa3a <main+0x92>

00000bfc <__vector_18>:
		break;
	}
}
*/

ISR(USART0_RX_vect) {
     bfc:	1f 92       	push	r1
     bfe:	0f 92       	push	r0
     c00:	0f b6       	in	r0, 0x3f	; 63
     c02:	0f 92       	push	r0
     c04:	11 24       	eor	r1, r1
     c06:	8f 93       	push	r24
	char character_rx = UDR0;
     c08:	80 91 c6 00 	lds	r24, 0x00C6	; 0x8000c6 <__TEXT_REGION_LENGTH__+0x7f80c6>
	if (character_rx == '\n' || character_rx == '\r') {
     c0c:	8a 30       	cpi	r24, 0x0A	; 10
     c0e:	91 f0       	breq	.+36     	; 0xc34 <__vector_18+0x38>
     c10:	8d 30       	cpi	r24, 0x0D	; 13
     c12:	81 f0       	breq	.+32     	; 0xc34 <__vector_18+0x38>
			return;
	}
	switch (character_rx) {
     c14:	86 35       	cpi	r24, 0x56	; 86
     c16:	41 f0       	breq	.+16     	; 0xc28 <__vector_18+0x2c>
     c18:	86 37       	cpi	r24, 0x76	; 118
     c1a:	61 f4       	brne	.+24     	; 0xc34 <__vector_18+0x38>
		case 'v':
		fan_command = 1;
     c1c:	81 e0       	ldi	r24, 0x01	; 1
     c1e:	80 93 49 01 	sts	0x0149, r24	; 0x800149 <fan_command>
		pause_offline = 1;
     c22:	80 93 48 01 	sts	0x0148, r24	; 0x800148 <pause_offline>
		break;
     c26:	06 c0       	rjmp	.+12     	; 0xc34 <__vector_18+0x38>
		
		case 'V':
		fan_command = 2;
     c28:	82 e0       	ldi	r24, 0x02	; 2
     c2a:	80 93 49 01 	sts	0x0149, r24	; 0x800149 <fan_command>
		pause_offline = 1;
     c2e:	81 e0       	ldi	r24, 0x01	; 1
     c30:	80 93 48 01 	sts	0x0148, r24	; 0x800148 <pause_offline>
		break;
		default:
				
		break;
	}
}
     c34:	8f 91       	pop	r24
     c36:	0f 90       	pop	r0
     c38:	0f be       	out	0x3f, r0	; 63
     c3a:	0f 90       	pop	r0
     c3c:	1f 90       	pop	r1
     c3e:	18 95       	reti

00000c40 <__vector_42>:

ISR(TIMER4_COMPA_vect) {
     c40:	1f 92       	push	r1
     c42:	0f 92       	push	r0
     c44:	0f b6       	in	r0, 0x3f	; 63
     c46:	0f 92       	push	r0
     c48:	11 24       	eor	r1, r1
     c4a:	0f 93       	push	r16
     c4c:	1f 93       	push	r17
     c4e:	2f 93       	push	r18
     c50:	3f 93       	push	r19
     c52:	4f 93       	push	r20
     c54:	5f 93       	push	r21
     c56:	6f 93       	push	r22
     c58:	7f 93       	push	r23
     c5a:	8f 93       	push	r24
     c5c:	9f 93       	push	r25
     c5e:	af 93       	push	r26
     c60:	bf 93       	push	r27
     c62:	ef 93       	push	r30
     c64:	ff 93       	push	r31
     c66:	cf 93       	push	r28
     c68:	df 93       	push	r29
     c6a:	cd b7       	in	r28, 0x3d	; 61
     c6c:	de b7       	in	r29, 0x3e	; 62
     c6e:	c0 54       	subi	r28, 0x40	; 64
     c70:	d1 09       	sbc	r29, r1
     c72:	de bf       	out	0x3e, r29	; 62
     c74:	cd bf       	out	0x3d, r28	; 61
	update_data = 1;
     c76:	81 e0       	ldi	r24, 0x01	; 1
     c78:	80 93 57 01 	sts	0x0157, r24	; 0x800157 <update_data>
	counter++;
     c7c:	80 91 46 01 	lds	r24, 0x0146	; 0x800146 <__data_end>
     c80:	8f 5f       	subi	r24, 0xFF	; 255
     c82:	80 93 46 01 	sts	0x0146, r24	; 0x800146 <__data_end>
	if (counter >= 4) {
     c86:	84 30       	cpi	r24, 0x04	; 4
     c88:	08 f1       	brcs	.+66     	; 0xccc <__vector_42+0x8c>
		counter = 0;
     c8a:	10 92 46 01 	sts	0x0146, r1	; 0x800146 <__data_end>
		SerialWriteText(buffer);
		*/
		char buffer[64];  // Buffer lo suficientemente grande para los 3 datos

		// Enviar los datos en lneas separadas con el formato esperado
		sprintf(buffer, "H:%d\nT:%d\nG:%d\n", received_data_humidity, received_data_temperature, received_data_gas);
     c8e:	80 91 56 01 	lds	r24, 0x0156	; 0x800156 <received_data_gas>
     c92:	1f 92       	push	r1
     c94:	8f 93       	push	r24
     c96:	80 91 54 01 	lds	r24, 0x0154	; 0x800154 <received_data_temperature>
     c9a:	1f 92       	push	r1
     c9c:	8f 93       	push	r24
     c9e:	80 91 58 01 	lds	r24, 0x0158	; 0x800158 <received_data_humidity>
     ca2:	1f 92       	push	r1
     ca4:	8f 93       	push	r24
     ca6:	81 e3       	ldi	r24, 0x31	; 49
     ca8:	91 e0       	ldi	r25, 0x01	; 1
     caa:	9f 93       	push	r25
     cac:	8f 93       	push	r24
     cae:	8e 01       	movw	r16, r28
     cb0:	0f 5f       	subi	r16, 0xFF	; 255
     cb2:	1f 4f       	sbci	r17, 0xFF	; 255
     cb4:	1f 93       	push	r17
     cb6:	0f 93       	push	r16
     cb8:	0e 94 b3 08 	call	0x1166	; 0x1166 <sprintf>
	
		SerialWriteText(buffer);  // Enviar toda la cadena al ESP32
     cbc:	c8 01       	movw	r24, r16
     cbe:	0e 94 15 07 	call	0xe2a	; 0xe2a <SerialWriteText>
     cc2:	0f b6       	in	r0, 0x3f	; 63
     cc4:	f8 94       	cli
     cc6:	de bf       	out	0x3e, r29	; 62
     cc8:	0f be       	out	0x3f, r0	; 63
     cca:	cd bf       	out	0x3d, r28	; 61
	}
}
     ccc:	c0 5c       	subi	r28, 0xC0	; 192
     cce:	df 4f       	sbci	r29, 0xFF	; 255
     cd0:	0f b6       	in	r0, 0x3f	; 63
     cd2:	f8 94       	cli
     cd4:	de bf       	out	0x3e, r29	; 62
     cd6:	0f be       	out	0x3f, r0	; 63
     cd8:	cd bf       	out	0x3d, r28	; 61
     cda:	df 91       	pop	r29
     cdc:	cf 91       	pop	r28
     cde:	ff 91       	pop	r31
     ce0:	ef 91       	pop	r30
     ce2:	bf 91       	pop	r27
     ce4:	af 91       	pop	r26
     ce6:	9f 91       	pop	r25
     ce8:	8f 91       	pop	r24
     cea:	7f 91       	pop	r23
     cec:	6f 91       	pop	r22
     cee:	5f 91       	pop	r21
     cf0:	4f 91       	pop	r20
     cf2:	3f 91       	pop	r19
     cf4:	2f 91       	pop	r18
     cf6:	1f 91       	pop	r17
     cf8:	0f 91       	pop	r16
     cfa:	0f 90       	pop	r0
     cfc:	0f be       	out	0x3f, r0	; 63
     cfe:	0f 90       	pop	r0
     d00:	1f 90       	pop	r1
     d02:	18 95       	reti

00000d04 <SerialBegin>:
#include "USART0.h"

void SerialBegin(ModeUsart mode_usart, uint32_t BaudRate, SpeedMode speed_mode, uint8_t InterruptRX, uint8_t InterruptTX) {
     d04:	ef 92       	push	r14
     d06:	ff 92       	push	r15
     d08:	0f 93       	push	r16
     d0a:	1f 93       	push	r17
	/*----------------------------------------------------USART0---------------------------------------------------------------------*/
		DDRD &= ~(1<<DDD0);										// D0 as input RX
     d0c:	9a b1       	in	r25, 0x0a	; 10
     d0e:	9e 7f       	andi	r25, 0xFE	; 254
     d10:	9a b9       	out	0x0a, r25	; 10
		UCSR0B |= (1<<RXEN0);									// Receiver enable
     d12:	e1 ec       	ldi	r30, 0xC1	; 193
     d14:	f0 e0       	ldi	r31, 0x00	; 0
     d16:	90 81       	ld	r25, Z
     d18:	90 61       	ori	r25, 0x10	; 16
     d1a:	90 83       	st	Z, r25
		DDRD |= (1<<DDD1);										// D1 as output TX
     d1c:	9a b1       	in	r25, 0x0a	; 10
     d1e:	92 60       	ori	r25, 0x02	; 2
     d20:	9a b9       	out	0x0a, r25	; 10
		UCSR0B |= (1<<TXEN0);									// Transmitter enable
     d22:	90 81       	ld	r25, Z
     d24:	98 60       	ori	r25, 0x08	; 8
     d26:	90 83       	st	Z, r25
		UCSR0A = (UCSR0A & 0xFD) | (speed_mode);					// Transmission speed
     d28:	a0 ec       	ldi	r26, 0xC0	; 192
     d2a:	b0 e0       	ldi	r27, 0x00	; 0
     d2c:	9c 91       	ld	r25, X
     d2e:	9d 7f       	andi	r25, 0xFD	; 253
     d30:	92 2b       	or	r25, r18
     d32:	9c 93       	st	X, r25
		UCSR0B = (UCSR0B & 0x7F) | (InterruptRX<<RXCIE0);		// RX complete interrupt enable
     d34:	90 81       	ld	r25, Z
     d36:	30 e8       	ldi	r19, 0x80	; 128
     d38:	03 9f       	mul	r16, r19
     d3a:	80 01       	movw	r16, r0
     d3c:	11 24       	eor	r1, r1
     d3e:	9f 77       	andi	r25, 0x7F	; 127
     d40:	09 2b       	or	r16, r25
     d42:	00 83       	st	Z, r16
		UCSR0B = (UCSR0B & 0xBF) | (InterruptTX<<TXCIE0);		// TX complete interrupt enable
     d44:	90 81       	ld	r25, Z
     d46:	30 e4       	ldi	r19, 0x40	; 64
     d48:	e3 9e       	mul	r14, r19
     d4a:	70 01       	movw	r14, r0
     d4c:	11 24       	eor	r1, r1
     d4e:	9f 7b       	andi	r25, 0xBF	; 191
     d50:	e9 2a       	or	r14, r25
     d52:	e0 82       	st	Z, r14
		UCSR0C = (UCSR0C & 0x3F) | (mode_usart);					// USART mode
     d54:	e2 ec       	ldi	r30, 0xC2	; 194
     d56:	f0 e0       	ldi	r31, 0x00	; 0
     d58:	90 81       	ld	r25, Z
     d5a:	9f 73       	andi	r25, 0x3F	; 63
     d5c:	98 2b       	or	r25, r24
     d5e:	90 83       	st	Z, r25
		UCSR0C = (UCSR0C & 0xC0) | (1<<UCSZ01 | 1<<UCSZ00);		// Frame: no parity, 1 stop bit, 8-bit size
     d60:	90 81       	ld	r25, Z
     d62:	90 7c       	andi	r25, 0xC0	; 192
     d64:	96 60       	ori	r25, 0x06	; 6
     d66:	90 83       	st	Z, r25
		
		if (speed_mode == NormalSpeed) {
     d68:	21 11       	cpse	r18, r1
     d6a:	2a c0       	rjmp	.+84     	; 0xdc0 <SerialBegin+0xbc>
			if (mode_usart == Synch) {
     d6c:	80 34       	cpi	r24, 0x40	; 64
     d6e:	99 f4       	brne	.+38     	; 0xd96 <SerialBegin+0x92>
				switch (BaudRate) {
     d70:	40 38       	cpi	r20, 0x80	; 128
     d72:	55 42       	sbci	r21, 0x25	; 37
     d74:	61 05       	cpc	r22, r1
     d76:	71 05       	cpc	r23, r1
     d78:	39 f4       	brne	.+14     	; 0xd88 <SerialBegin+0x84>
					case 9600:
					UBRR0 = 832;
     d7a:	80 e4       	ldi	r24, 0x40	; 64
     d7c:	93 e0       	ldi	r25, 0x03	; 3
     d7e:	90 93 c5 00 	sts	0x00C5, r25	; 0x8000c5 <__TEXT_REGION_LENGTH__+0x7f80c5>
     d82:	80 93 c4 00 	sts	0x00C4, r24	; 0x8000c4 <__TEXT_REGION_LENGTH__+0x7f80c4>
					break;
     d86:	4c c0       	rjmp	.+152    	; 0xe20 <SerialBegin+0x11c>
					default:
					UBRR0 = 832;
     d88:	80 e4       	ldi	r24, 0x40	; 64
     d8a:	93 e0       	ldi	r25, 0x03	; 3
     d8c:	90 93 c5 00 	sts	0x00C5, r25	; 0x8000c5 <__TEXT_REGION_LENGTH__+0x7f80c5>
     d90:	80 93 c4 00 	sts	0x00C4, r24	; 0x8000c4 <__TEXT_REGION_LENGTH__+0x7f80c4>
					break;
     d94:	45 c0       	rjmp	.+138    	; 0xe20 <SerialBegin+0x11c>
				}
			}
			else if (mode_usart == Asynch) {
     d96:	81 11       	cpse	r24, r1
     d98:	43 c0       	rjmp	.+134    	; 0xe20 <SerialBegin+0x11c>
				switch (BaudRate) {
     d9a:	40 38       	cpi	r20, 0x80	; 128
     d9c:	55 42       	sbci	r21, 0x25	; 37
     d9e:	61 05       	cpc	r22, r1
     da0:	71 05       	cpc	r23, r1
     da2:	39 f4       	brne	.+14     	; 0xdb2 <SerialBegin+0xae>
					case 9600:
					UBRR0 = 103;
     da4:	87 e6       	ldi	r24, 0x67	; 103
     da6:	90 e0       	ldi	r25, 0x00	; 0
     da8:	90 93 c5 00 	sts	0x00C5, r25	; 0x8000c5 <__TEXT_REGION_LENGTH__+0x7f80c5>
     dac:	80 93 c4 00 	sts	0x00C4, r24	; 0x8000c4 <__TEXT_REGION_LENGTH__+0x7f80c4>
					break;
     db0:	37 c0       	rjmp	.+110    	; 0xe20 <SerialBegin+0x11c>
					default:
					UBRR0 = 103;
     db2:	87 e6       	ldi	r24, 0x67	; 103
     db4:	90 e0       	ldi	r25, 0x00	; 0
     db6:	90 93 c5 00 	sts	0x00C5, r25	; 0x8000c5 <__TEXT_REGION_LENGTH__+0x7f80c5>
     dba:	80 93 c4 00 	sts	0x00C4, r24	; 0x8000c4 <__TEXT_REGION_LENGTH__+0x7f80c4>
					break;
     dbe:	30 c0       	rjmp	.+96     	; 0xe20 <SerialBegin+0x11c>
				}
			}
		}
		else if (speed_mode == DoubleSpeed) {
     dc0:	22 30       	cpi	r18, 0x02	; 2
     dc2:	71 f5       	brne	.+92     	; 0xe20 <SerialBegin+0x11c>
			if (mode_usart == Synch) {
     dc4:	80 34       	cpi	r24, 0x40	; 64
     dc6:	c1 f4       	brne	.+48     	; 0xdf8 <SerialBegin+0xf4>
				UCSR0A = (UCSR0A & 0xFD);						// Forces normal speed on synchronous operation
     dc8:	e0 ec       	ldi	r30, 0xC0	; 192
     dca:	f0 e0       	ldi	r31, 0x00	; 0
     dcc:	80 81       	ld	r24, Z
     dce:	8d 7f       	andi	r24, 0xFD	; 253
     dd0:	80 83       	st	Z, r24
				switch (BaudRate) {
     dd2:	40 38       	cpi	r20, 0x80	; 128
     dd4:	55 42       	sbci	r21, 0x25	; 37
     dd6:	61 05       	cpc	r22, r1
     dd8:	71 05       	cpc	r23, r1
     dda:	39 f4       	brne	.+14     	; 0xdea <SerialBegin+0xe6>
					case 9600:
					UBRR0 = 832;
     ddc:	80 e4       	ldi	r24, 0x40	; 64
     dde:	93 e0       	ldi	r25, 0x03	; 3
     de0:	90 93 c5 00 	sts	0x00C5, r25	; 0x8000c5 <__TEXT_REGION_LENGTH__+0x7f80c5>
     de4:	80 93 c4 00 	sts	0x00C4, r24	; 0x8000c4 <__TEXT_REGION_LENGTH__+0x7f80c4>
					break;
     de8:	1b c0       	rjmp	.+54     	; 0xe20 <SerialBegin+0x11c>
					default:
					UBRR0 = 832;
     dea:	80 e4       	ldi	r24, 0x40	; 64
     dec:	93 e0       	ldi	r25, 0x03	; 3
     dee:	90 93 c5 00 	sts	0x00C5, r25	; 0x8000c5 <__TEXT_REGION_LENGTH__+0x7f80c5>
     df2:	80 93 c4 00 	sts	0x00C4, r24	; 0x8000c4 <__TEXT_REGION_LENGTH__+0x7f80c4>
					break;
     df6:	14 c0       	rjmp	.+40     	; 0xe20 <SerialBegin+0x11c>
				}
			}
			else if (mode_usart == Asynch) {
     df8:	81 11       	cpse	r24, r1
     dfa:	12 c0       	rjmp	.+36     	; 0xe20 <SerialBegin+0x11c>
				switch (BaudRate) {
     dfc:	40 38       	cpi	r20, 0x80	; 128
     dfe:	55 42       	sbci	r21, 0x25	; 37
     e00:	61 05       	cpc	r22, r1
     e02:	71 05       	cpc	r23, r1
     e04:	39 f4       	brne	.+14     	; 0xe14 <SerialBegin+0x110>
					case 9600:
					UBRR0 = 207;
     e06:	8f ec       	ldi	r24, 0xCF	; 207
     e08:	90 e0       	ldi	r25, 0x00	; 0
     e0a:	90 93 c5 00 	sts	0x00C5, r25	; 0x8000c5 <__TEXT_REGION_LENGTH__+0x7f80c5>
     e0e:	80 93 c4 00 	sts	0x00C4, r24	; 0x8000c4 <__TEXT_REGION_LENGTH__+0x7f80c4>
					break;
     e12:	06 c0       	rjmp	.+12     	; 0xe20 <SerialBegin+0x11c>
					default:
					UBRR0 = 207;
     e14:	8f ec       	ldi	r24, 0xCF	; 207
     e16:	90 e0       	ldi	r25, 0x00	; 0
     e18:	90 93 c5 00 	sts	0x00C5, r25	; 0x8000c5 <__TEXT_REGION_LENGTH__+0x7f80c5>
     e1c:	80 93 c4 00 	sts	0x00C4, r24	; 0x8000c4 <__TEXT_REGION_LENGTH__+0x7f80c4>
					break;
				}
			}
		}
}
     e20:	1f 91       	pop	r17
     e22:	0f 91       	pop	r16
     e24:	ff 90       	pop	r15
     e26:	ef 90       	pop	r14
     e28:	08 95       	ret

00000e2a <SerialWriteText>:

void SerialWriteText(char* TextToTransmit) {
     e2a:	ac 01       	movw	r20, r24
	if (TextToTransmit == NULL) return;
     e2c:	89 2b       	or	r24, r25
     e2e:	79 f0       	breq	.+30     	; 0xe4e <SerialWriteText+0x24>
     e30:	20 e0       	ldi	r18, 0x00	; 0
     e32:	07 c0       	rjmp	.+14     	; 0xe42 <SerialWriteText+0x18>
	for (uint8_t i = 0; TextToTransmit[i] != '\0'; i++) {
		while (!(UCSR0A & (1<<UDRE0)));
     e34:	90 91 c0 00 	lds	r25, 0x00C0	; 0x8000c0 <__TEXT_REGION_LENGTH__+0x7f80c0>
     e38:	95 ff       	sbrs	r25, 5
     e3a:	fc cf       	rjmp	.-8      	; 0xe34 <SerialWriteText+0xa>
		UDR0 = TextToTransmit[i];
     e3c:	30 93 c6 00 	sts	0x00C6, r19	; 0x8000c6 <__TEXT_REGION_LENGTH__+0x7f80c6>
		}
}

void SerialWriteText(char* TextToTransmit) {
	if (TextToTransmit == NULL) return;
	for (uint8_t i = 0; TextToTransmit[i] != '\0'; i++) {
     e40:	2f 5f       	subi	r18, 0xFF	; 255
     e42:	fa 01       	movw	r30, r20
     e44:	e2 0f       	add	r30, r18
     e46:	f1 1d       	adc	r31, r1
     e48:	30 81       	ld	r19, Z
     e4a:	31 11       	cpse	r19, r1
     e4c:	f3 cf       	rjmp	.-26     	; 0xe34 <SerialWriteText+0xa>
     e4e:	08 95       	ret

00000e50 <IntToString>:
		while (!(UCSR0A & (1<<UDRE0)));
		UDR0 = TextToTransmit[i];
	}
}

char* IntToString(int IntToConvert) {
     e50:	0f 93       	push	r16
     e52:	1f 93       	push	r17
     e54:	cf 93       	push	r28
     e56:	df 93       	push	r29
     e58:	18 2f       	mov	r17, r24
     e5a:	09 2f       	mov	r16, r25
	int ConvertedLength = snprintf(NULL, 0, "%d", IntToConvert) + 1;
     e5c:	9f 93       	push	r25
     e5e:	8f 93       	push	r24
     e60:	81 e4       	ldi	r24, 0x41	; 65
     e62:	91 e0       	ldi	r25, 0x01	; 1
     e64:	9f 93       	push	r25
     e66:	8f 93       	push	r24
     e68:	1f 92       	push	r1
     e6a:	1f 92       	push	r1
     e6c:	1f 92       	push	r1
     e6e:	1f 92       	push	r1
     e70:	0e 94 83 08 	call	0x1106	; 0x1106 <snprintf>
	char* IntConverted = malloc(ConvertedLength);
     e74:	01 96       	adiw	r24, 0x01	; 1
     e76:	0e 94 62 07 	call	0xec4	; 0xec4 <malloc>
     e7a:	ec 01       	movw	r28, r24
	if (IntConverted == NULL) return NULL;
     e7c:	8d b7       	in	r24, 0x3d	; 61
     e7e:	9e b7       	in	r25, 0x3e	; 62
     e80:	08 96       	adiw	r24, 0x08	; 8
     e82:	0f b6       	in	r0, 0x3f	; 63
     e84:	f8 94       	cli
     e86:	9e bf       	out	0x3e, r25	; 62
     e88:	0f be       	out	0x3f, r0	; 63
     e8a:	8d bf       	out	0x3d, r24	; 61
     e8c:	20 97       	sbiw	r28, 0x00	; 0
     e8e:	99 f0       	breq	.+38     	; 0xeb6 <IntToString+0x66>
	sprintf(IntConverted, "%d", IntToConvert);
     e90:	0f 93       	push	r16
     e92:	1f 93       	push	r17
     e94:	81 e4       	ldi	r24, 0x41	; 65
     e96:	91 e0       	ldi	r25, 0x01	; 1
     e98:	9f 93       	push	r25
     e9a:	8f 93       	push	r24
     e9c:	df 93       	push	r29
     e9e:	cf 93       	push	r28
     ea0:	0e 94 b3 08 	call	0x1166	; 0x1166 <sprintf>
	return IntConverted;
     ea4:	0f 90       	pop	r0
     ea6:	0f 90       	pop	r0
     ea8:	0f 90       	pop	r0
     eaa:	0f 90       	pop	r0
     eac:	0f 90       	pop	r0
     eae:	0f 90       	pop	r0
     eb0:	8c 2f       	mov	r24, r28
     eb2:	9d 2f       	mov	r25, r29
     eb4:	02 c0       	rjmp	.+4      	; 0xeba <IntToString+0x6a>
}

char* IntToString(int IntToConvert) {
	int ConvertedLength = snprintf(NULL, 0, "%d", IntToConvert) + 1;
	char* IntConverted = malloc(ConvertedLength);
	if (IntConverted == NULL) return NULL;
     eb6:	80 e0       	ldi	r24, 0x00	; 0
     eb8:	90 e0       	ldi	r25, 0x00	; 0
	sprintf(IntConverted, "%d", IntToConvert);
	return IntConverted;
}
     eba:	df 91       	pop	r29
     ebc:	cf 91       	pop	r28
     ebe:	1f 91       	pop	r17
     ec0:	0f 91       	pop	r16
     ec2:	08 95       	ret

00000ec4 <malloc>:
     ec4:	0f 93       	push	r16
     ec6:	1f 93       	push	r17
     ec8:	cf 93       	push	r28
     eca:	df 93       	push	r29
     ecc:	82 30       	cpi	r24, 0x02	; 2
     ece:	91 05       	cpc	r25, r1
     ed0:	10 f4       	brcc	.+4      	; 0xed6 <malloc+0x12>
     ed2:	82 e0       	ldi	r24, 0x02	; 2
     ed4:	90 e0       	ldi	r25, 0x00	; 0
     ed6:	e0 91 5b 01 	lds	r30, 0x015B	; 0x80015b <__flp>
     eda:	f0 91 5c 01 	lds	r31, 0x015C	; 0x80015c <__flp+0x1>
     ede:	20 e0       	ldi	r18, 0x00	; 0
     ee0:	30 e0       	ldi	r19, 0x00	; 0
     ee2:	a0 e0       	ldi	r26, 0x00	; 0
     ee4:	b0 e0       	ldi	r27, 0x00	; 0
     ee6:	30 97       	sbiw	r30, 0x00	; 0
     ee8:	19 f1       	breq	.+70     	; 0xf30 <malloc+0x6c>
     eea:	40 81       	ld	r20, Z
     eec:	51 81       	ldd	r21, Z+1	; 0x01
     eee:	02 81       	ldd	r16, Z+2	; 0x02
     ef0:	13 81       	ldd	r17, Z+3	; 0x03
     ef2:	48 17       	cp	r20, r24
     ef4:	59 07       	cpc	r21, r25
     ef6:	c8 f0       	brcs	.+50     	; 0xf2a <malloc+0x66>
     ef8:	84 17       	cp	r24, r20
     efa:	95 07       	cpc	r25, r21
     efc:	69 f4       	brne	.+26     	; 0xf18 <malloc+0x54>
     efe:	10 97       	sbiw	r26, 0x00	; 0
     f00:	31 f0       	breq	.+12     	; 0xf0e <malloc+0x4a>
     f02:	12 96       	adiw	r26, 0x02	; 2
     f04:	0c 93       	st	X, r16
     f06:	12 97       	sbiw	r26, 0x02	; 2
     f08:	13 96       	adiw	r26, 0x03	; 3
     f0a:	1c 93       	st	X, r17
     f0c:	27 c0       	rjmp	.+78     	; 0xf5c <malloc+0x98>
     f0e:	00 93 5b 01 	sts	0x015B, r16	; 0x80015b <__flp>
     f12:	10 93 5c 01 	sts	0x015C, r17	; 0x80015c <__flp+0x1>
     f16:	22 c0       	rjmp	.+68     	; 0xf5c <malloc+0x98>
     f18:	21 15       	cp	r18, r1
     f1a:	31 05       	cpc	r19, r1
     f1c:	19 f0       	breq	.+6      	; 0xf24 <malloc+0x60>
     f1e:	42 17       	cp	r20, r18
     f20:	53 07       	cpc	r21, r19
     f22:	18 f4       	brcc	.+6      	; 0xf2a <malloc+0x66>
     f24:	9a 01       	movw	r18, r20
     f26:	bd 01       	movw	r22, r26
     f28:	ef 01       	movw	r28, r30
     f2a:	df 01       	movw	r26, r30
     f2c:	f8 01       	movw	r30, r16
     f2e:	db cf       	rjmp	.-74     	; 0xee6 <malloc+0x22>
     f30:	21 15       	cp	r18, r1
     f32:	31 05       	cpc	r19, r1
     f34:	f9 f0       	breq	.+62     	; 0xf74 <malloc+0xb0>
     f36:	28 1b       	sub	r18, r24
     f38:	39 0b       	sbc	r19, r25
     f3a:	24 30       	cpi	r18, 0x04	; 4
     f3c:	31 05       	cpc	r19, r1
     f3e:	80 f4       	brcc	.+32     	; 0xf60 <malloc+0x9c>
     f40:	8a 81       	ldd	r24, Y+2	; 0x02
     f42:	9b 81       	ldd	r25, Y+3	; 0x03
     f44:	61 15       	cp	r22, r1
     f46:	71 05       	cpc	r23, r1
     f48:	21 f0       	breq	.+8      	; 0xf52 <malloc+0x8e>
     f4a:	fb 01       	movw	r30, r22
     f4c:	93 83       	std	Z+3, r25	; 0x03
     f4e:	82 83       	std	Z+2, r24	; 0x02
     f50:	04 c0       	rjmp	.+8      	; 0xf5a <malloc+0x96>
     f52:	90 93 5c 01 	sts	0x015C, r25	; 0x80015c <__flp+0x1>
     f56:	80 93 5b 01 	sts	0x015B, r24	; 0x80015b <__flp>
     f5a:	fe 01       	movw	r30, r28
     f5c:	32 96       	adiw	r30, 0x02	; 2
     f5e:	44 c0       	rjmp	.+136    	; 0xfe8 <malloc+0x124>
     f60:	fe 01       	movw	r30, r28
     f62:	e2 0f       	add	r30, r18
     f64:	f3 1f       	adc	r31, r19
     f66:	81 93       	st	Z+, r24
     f68:	91 93       	st	Z+, r25
     f6a:	22 50       	subi	r18, 0x02	; 2
     f6c:	31 09       	sbc	r19, r1
     f6e:	39 83       	std	Y+1, r19	; 0x01
     f70:	28 83       	st	Y, r18
     f72:	3a c0       	rjmp	.+116    	; 0xfe8 <malloc+0x124>
     f74:	20 91 59 01 	lds	r18, 0x0159	; 0x800159 <__brkval>
     f78:	30 91 5a 01 	lds	r19, 0x015A	; 0x80015a <__brkval+0x1>
     f7c:	23 2b       	or	r18, r19
     f7e:	41 f4       	brne	.+16     	; 0xf90 <malloc+0xcc>
     f80:	20 91 02 01 	lds	r18, 0x0102	; 0x800102 <__malloc_heap_start>
     f84:	30 91 03 01 	lds	r19, 0x0103	; 0x800103 <__malloc_heap_start+0x1>
     f88:	30 93 5a 01 	sts	0x015A, r19	; 0x80015a <__brkval+0x1>
     f8c:	20 93 59 01 	sts	0x0159, r18	; 0x800159 <__brkval>
     f90:	20 91 00 01 	lds	r18, 0x0100	; 0x800100 <__DATA_REGION_ORIGIN__>
     f94:	30 91 01 01 	lds	r19, 0x0101	; 0x800101 <__DATA_REGION_ORIGIN__+0x1>
     f98:	21 15       	cp	r18, r1
     f9a:	31 05       	cpc	r19, r1
     f9c:	41 f4       	brne	.+16     	; 0xfae <malloc+0xea>
     f9e:	2d b7       	in	r18, 0x3d	; 61
     fa0:	3e b7       	in	r19, 0x3e	; 62
     fa2:	40 91 04 01 	lds	r20, 0x0104	; 0x800104 <__malloc_margin>
     fa6:	50 91 05 01 	lds	r21, 0x0105	; 0x800105 <__malloc_margin+0x1>
     faa:	24 1b       	sub	r18, r20
     fac:	35 0b       	sbc	r19, r21
     fae:	e0 91 59 01 	lds	r30, 0x0159	; 0x800159 <__brkval>
     fb2:	f0 91 5a 01 	lds	r31, 0x015A	; 0x80015a <__brkval+0x1>
     fb6:	e2 17       	cp	r30, r18
     fb8:	f3 07       	cpc	r31, r19
     fba:	a0 f4       	brcc	.+40     	; 0xfe4 <malloc+0x120>
     fbc:	2e 1b       	sub	r18, r30
     fbe:	3f 0b       	sbc	r19, r31
     fc0:	28 17       	cp	r18, r24
     fc2:	39 07       	cpc	r19, r25
     fc4:	78 f0       	brcs	.+30     	; 0xfe4 <malloc+0x120>
     fc6:	ac 01       	movw	r20, r24
     fc8:	4e 5f       	subi	r20, 0xFE	; 254
     fca:	5f 4f       	sbci	r21, 0xFF	; 255
     fcc:	24 17       	cp	r18, r20
     fce:	35 07       	cpc	r19, r21
     fd0:	48 f0       	brcs	.+18     	; 0xfe4 <malloc+0x120>
     fd2:	4e 0f       	add	r20, r30
     fd4:	5f 1f       	adc	r21, r31
     fd6:	50 93 5a 01 	sts	0x015A, r21	; 0x80015a <__brkval+0x1>
     fda:	40 93 59 01 	sts	0x0159, r20	; 0x800159 <__brkval>
     fde:	81 93       	st	Z+, r24
     fe0:	91 93       	st	Z+, r25
     fe2:	02 c0       	rjmp	.+4      	; 0xfe8 <malloc+0x124>
     fe4:	e0 e0       	ldi	r30, 0x00	; 0
     fe6:	f0 e0       	ldi	r31, 0x00	; 0
     fe8:	cf 01       	movw	r24, r30
     fea:	df 91       	pop	r29
     fec:	cf 91       	pop	r28
     fee:	1f 91       	pop	r17
     ff0:	0f 91       	pop	r16
     ff2:	08 95       	ret

00000ff4 <free>:
     ff4:	cf 93       	push	r28
     ff6:	df 93       	push	r29
     ff8:	00 97       	sbiw	r24, 0x00	; 0
     ffa:	09 f4       	brne	.+2      	; 0xffe <free+0xa>
     ffc:	81 c0       	rjmp	.+258    	; 0x1100 <free+0x10c>
     ffe:	fc 01       	movw	r30, r24
    1000:	32 97       	sbiw	r30, 0x02	; 2
    1002:	13 82       	std	Z+3, r1	; 0x03
    1004:	12 82       	std	Z+2, r1	; 0x02
    1006:	a0 91 5b 01 	lds	r26, 0x015B	; 0x80015b <__flp>
    100a:	b0 91 5c 01 	lds	r27, 0x015C	; 0x80015c <__flp+0x1>
    100e:	10 97       	sbiw	r26, 0x00	; 0
    1010:	81 f4       	brne	.+32     	; 0x1032 <free+0x3e>
    1012:	20 81       	ld	r18, Z
    1014:	31 81       	ldd	r19, Z+1	; 0x01
    1016:	82 0f       	add	r24, r18
    1018:	93 1f       	adc	r25, r19
    101a:	20 91 59 01 	lds	r18, 0x0159	; 0x800159 <__brkval>
    101e:	30 91 5a 01 	lds	r19, 0x015A	; 0x80015a <__brkval+0x1>
    1022:	28 17       	cp	r18, r24
    1024:	39 07       	cpc	r19, r25
    1026:	51 f5       	brne	.+84     	; 0x107c <free+0x88>
    1028:	f0 93 5a 01 	sts	0x015A, r31	; 0x80015a <__brkval+0x1>
    102c:	e0 93 59 01 	sts	0x0159, r30	; 0x800159 <__brkval>
    1030:	67 c0       	rjmp	.+206    	; 0x1100 <free+0x10c>
    1032:	ed 01       	movw	r28, r26
    1034:	20 e0       	ldi	r18, 0x00	; 0
    1036:	30 e0       	ldi	r19, 0x00	; 0
    1038:	ce 17       	cp	r28, r30
    103a:	df 07       	cpc	r29, r31
    103c:	40 f4       	brcc	.+16     	; 0x104e <free+0x5a>
    103e:	4a 81       	ldd	r20, Y+2	; 0x02
    1040:	5b 81       	ldd	r21, Y+3	; 0x03
    1042:	9e 01       	movw	r18, r28
    1044:	41 15       	cp	r20, r1
    1046:	51 05       	cpc	r21, r1
    1048:	f1 f0       	breq	.+60     	; 0x1086 <free+0x92>
    104a:	ea 01       	movw	r28, r20
    104c:	f5 cf       	rjmp	.-22     	; 0x1038 <free+0x44>
    104e:	d3 83       	std	Z+3, r29	; 0x03
    1050:	c2 83       	std	Z+2, r28	; 0x02
    1052:	40 81       	ld	r20, Z
    1054:	51 81       	ldd	r21, Z+1	; 0x01
    1056:	84 0f       	add	r24, r20
    1058:	95 1f       	adc	r25, r21
    105a:	c8 17       	cp	r28, r24
    105c:	d9 07       	cpc	r29, r25
    105e:	59 f4       	brne	.+22     	; 0x1076 <free+0x82>
    1060:	88 81       	ld	r24, Y
    1062:	99 81       	ldd	r25, Y+1	; 0x01
    1064:	84 0f       	add	r24, r20
    1066:	95 1f       	adc	r25, r21
    1068:	02 96       	adiw	r24, 0x02	; 2
    106a:	91 83       	std	Z+1, r25	; 0x01
    106c:	80 83       	st	Z, r24
    106e:	8a 81       	ldd	r24, Y+2	; 0x02
    1070:	9b 81       	ldd	r25, Y+3	; 0x03
    1072:	93 83       	std	Z+3, r25	; 0x03
    1074:	82 83       	std	Z+2, r24	; 0x02
    1076:	21 15       	cp	r18, r1
    1078:	31 05       	cpc	r19, r1
    107a:	29 f4       	brne	.+10     	; 0x1086 <free+0x92>
    107c:	f0 93 5c 01 	sts	0x015C, r31	; 0x80015c <__flp+0x1>
    1080:	e0 93 5b 01 	sts	0x015B, r30	; 0x80015b <__flp>
    1084:	3d c0       	rjmp	.+122    	; 0x1100 <free+0x10c>
    1086:	e9 01       	movw	r28, r18
    1088:	fb 83       	std	Y+3, r31	; 0x03
    108a:	ea 83       	std	Y+2, r30	; 0x02
    108c:	49 91       	ld	r20, Y+
    108e:	59 91       	ld	r21, Y+
    1090:	c4 0f       	add	r28, r20
    1092:	d5 1f       	adc	r29, r21
    1094:	ec 17       	cp	r30, r28
    1096:	fd 07       	cpc	r31, r29
    1098:	61 f4       	brne	.+24     	; 0x10b2 <free+0xbe>
    109a:	80 81       	ld	r24, Z
    109c:	91 81       	ldd	r25, Z+1	; 0x01
    109e:	84 0f       	add	r24, r20
    10a0:	95 1f       	adc	r25, r21
    10a2:	02 96       	adiw	r24, 0x02	; 2
    10a4:	e9 01       	movw	r28, r18
    10a6:	99 83       	std	Y+1, r25	; 0x01
    10a8:	88 83       	st	Y, r24
    10aa:	82 81       	ldd	r24, Z+2	; 0x02
    10ac:	93 81       	ldd	r25, Z+3	; 0x03
    10ae:	9b 83       	std	Y+3, r25	; 0x03
    10b0:	8a 83       	std	Y+2, r24	; 0x02
    10b2:	e0 e0       	ldi	r30, 0x00	; 0
    10b4:	f0 e0       	ldi	r31, 0x00	; 0
    10b6:	12 96       	adiw	r26, 0x02	; 2
    10b8:	8d 91       	ld	r24, X+
    10ba:	9c 91       	ld	r25, X
    10bc:	13 97       	sbiw	r26, 0x03	; 3
    10be:	00 97       	sbiw	r24, 0x00	; 0
    10c0:	19 f0       	breq	.+6      	; 0x10c8 <free+0xd4>
    10c2:	fd 01       	movw	r30, r26
    10c4:	dc 01       	movw	r26, r24
    10c6:	f7 cf       	rjmp	.-18     	; 0x10b6 <free+0xc2>
    10c8:	8d 91       	ld	r24, X+
    10ca:	9c 91       	ld	r25, X
    10cc:	11 97       	sbiw	r26, 0x01	; 1
    10ce:	9d 01       	movw	r18, r26
    10d0:	2e 5f       	subi	r18, 0xFE	; 254
    10d2:	3f 4f       	sbci	r19, 0xFF	; 255
    10d4:	82 0f       	add	r24, r18
    10d6:	93 1f       	adc	r25, r19
    10d8:	20 91 59 01 	lds	r18, 0x0159	; 0x800159 <__brkval>
    10dc:	30 91 5a 01 	lds	r19, 0x015A	; 0x80015a <__brkval+0x1>
    10e0:	28 17       	cp	r18, r24
    10e2:	39 07       	cpc	r19, r25
    10e4:	69 f4       	brne	.+26     	; 0x1100 <free+0x10c>
    10e6:	30 97       	sbiw	r30, 0x00	; 0
    10e8:	29 f4       	brne	.+10     	; 0x10f4 <free+0x100>
    10ea:	10 92 5c 01 	sts	0x015C, r1	; 0x80015c <__flp+0x1>
    10ee:	10 92 5b 01 	sts	0x015B, r1	; 0x80015b <__flp>
    10f2:	02 c0       	rjmp	.+4      	; 0x10f8 <free+0x104>
    10f4:	13 82       	std	Z+3, r1	; 0x03
    10f6:	12 82       	std	Z+2, r1	; 0x02
    10f8:	b0 93 5a 01 	sts	0x015A, r27	; 0x80015a <__brkval+0x1>
    10fc:	a0 93 59 01 	sts	0x0159, r26	; 0x800159 <__brkval>
    1100:	df 91       	pop	r29
    1102:	cf 91       	pop	r28
    1104:	08 95       	ret

00001106 <snprintf>:
    1106:	ae e0       	ldi	r26, 0x0E	; 14
    1108:	b0 e0       	ldi	r27, 0x00	; 0
    110a:	e9 e8       	ldi	r30, 0x89	; 137
    110c:	f8 e0       	ldi	r31, 0x08	; 8
    110e:	0c 94 74 0b 	jmp	0x16e8	; 0x16e8 <__prologue_saves__+0x1c>
    1112:	0d 89       	ldd	r16, Y+21	; 0x15
    1114:	1e 89       	ldd	r17, Y+22	; 0x16
    1116:	8f 89       	ldd	r24, Y+23	; 0x17
    1118:	98 8d       	ldd	r25, Y+24	; 0x18
    111a:	26 e0       	ldi	r18, 0x06	; 6
    111c:	2c 83       	std	Y+4, r18	; 0x04
    111e:	1a 83       	std	Y+2, r17	; 0x02
    1120:	09 83       	std	Y+1, r16	; 0x01
    1122:	97 ff       	sbrs	r25, 7
    1124:	02 c0       	rjmp	.+4      	; 0x112a <snprintf+0x24>
    1126:	80 e0       	ldi	r24, 0x00	; 0
    1128:	90 e8       	ldi	r25, 0x80	; 128
    112a:	01 97       	sbiw	r24, 0x01	; 1
    112c:	9e 83       	std	Y+6, r25	; 0x06
    112e:	8d 83       	std	Y+5, r24	; 0x05
    1130:	ae 01       	movw	r20, r28
    1132:	45 5e       	subi	r20, 0xE5	; 229
    1134:	5f 4f       	sbci	r21, 0xFF	; 255
    1136:	69 8d       	ldd	r22, Y+25	; 0x19
    1138:	7a 8d       	ldd	r23, Y+26	; 0x1a
    113a:	ce 01       	movw	r24, r28
    113c:	01 96       	adiw	r24, 0x01	; 1
    113e:	0e 94 d5 08 	call	0x11aa	; 0x11aa <vfprintf>
    1142:	4d 81       	ldd	r20, Y+5	; 0x05
    1144:	5e 81       	ldd	r21, Y+6	; 0x06
    1146:	57 fd       	sbrc	r21, 7
    1148:	0a c0       	rjmp	.+20     	; 0x115e <snprintf+0x58>
    114a:	2f 81       	ldd	r18, Y+7	; 0x07
    114c:	38 85       	ldd	r19, Y+8	; 0x08
    114e:	42 17       	cp	r20, r18
    1150:	53 07       	cpc	r21, r19
    1152:	0c f4       	brge	.+2      	; 0x1156 <snprintf+0x50>
    1154:	9a 01       	movw	r18, r20
    1156:	f8 01       	movw	r30, r16
    1158:	e2 0f       	add	r30, r18
    115a:	f3 1f       	adc	r31, r19
    115c:	10 82       	st	Z, r1
    115e:	2e 96       	adiw	r28, 0x0e	; 14
    1160:	e4 e0       	ldi	r30, 0x04	; 4
    1162:	0c 94 90 0b 	jmp	0x1720	; 0x1720 <__epilogue_restores__+0x1c>

00001166 <sprintf>:
    1166:	ae e0       	ldi	r26, 0x0E	; 14
    1168:	b0 e0       	ldi	r27, 0x00	; 0
    116a:	e9 eb       	ldi	r30, 0xB9	; 185
    116c:	f8 e0       	ldi	r31, 0x08	; 8
    116e:	0c 94 74 0b 	jmp	0x16e8	; 0x16e8 <__prologue_saves__+0x1c>
    1172:	0d 89       	ldd	r16, Y+21	; 0x15
    1174:	1e 89       	ldd	r17, Y+22	; 0x16
    1176:	86 e0       	ldi	r24, 0x06	; 6
    1178:	8c 83       	std	Y+4, r24	; 0x04
    117a:	1a 83       	std	Y+2, r17	; 0x02
    117c:	09 83       	std	Y+1, r16	; 0x01
    117e:	8f ef       	ldi	r24, 0xFF	; 255
    1180:	9f e7       	ldi	r25, 0x7F	; 127
    1182:	9e 83       	std	Y+6, r25	; 0x06
    1184:	8d 83       	std	Y+5, r24	; 0x05
    1186:	ae 01       	movw	r20, r28
    1188:	47 5e       	subi	r20, 0xE7	; 231
    118a:	5f 4f       	sbci	r21, 0xFF	; 255
    118c:	6f 89       	ldd	r22, Y+23	; 0x17
    118e:	78 8d       	ldd	r23, Y+24	; 0x18
    1190:	ce 01       	movw	r24, r28
    1192:	01 96       	adiw	r24, 0x01	; 1
    1194:	0e 94 d5 08 	call	0x11aa	; 0x11aa <vfprintf>
    1198:	ef 81       	ldd	r30, Y+7	; 0x07
    119a:	f8 85       	ldd	r31, Y+8	; 0x08
    119c:	e0 0f       	add	r30, r16
    119e:	f1 1f       	adc	r31, r17
    11a0:	10 82       	st	Z, r1
    11a2:	2e 96       	adiw	r28, 0x0e	; 14
    11a4:	e4 e0       	ldi	r30, 0x04	; 4
    11a6:	0c 94 90 0b 	jmp	0x1720	; 0x1720 <__epilogue_restores__+0x1c>

000011aa <vfprintf>:
    11aa:	ab e0       	ldi	r26, 0x0B	; 11
    11ac:	b0 e0       	ldi	r27, 0x00	; 0
    11ae:	eb ed       	ldi	r30, 0xDB	; 219
    11b0:	f8 e0       	ldi	r31, 0x08	; 8
    11b2:	0c 94 66 0b 	jmp	0x16cc	; 0x16cc <__prologue_saves__>
    11b6:	6c 01       	movw	r12, r24
    11b8:	7b 01       	movw	r14, r22
    11ba:	8a 01       	movw	r16, r20
    11bc:	fc 01       	movw	r30, r24
    11be:	17 82       	std	Z+7, r1	; 0x07
    11c0:	16 82       	std	Z+6, r1	; 0x06
    11c2:	83 81       	ldd	r24, Z+3	; 0x03
    11c4:	81 ff       	sbrs	r24, 1
    11c6:	cc c1       	rjmp	.+920    	; 0x1560 <vfprintf+0x3b6>
    11c8:	ce 01       	movw	r24, r28
    11ca:	01 96       	adiw	r24, 0x01	; 1
    11cc:	3c 01       	movw	r6, r24
    11ce:	f6 01       	movw	r30, r12
    11d0:	93 81       	ldd	r25, Z+3	; 0x03
    11d2:	f7 01       	movw	r30, r14
    11d4:	93 fd       	sbrc	r25, 3
    11d6:	85 91       	lpm	r24, Z+
    11d8:	93 ff       	sbrs	r25, 3
    11da:	81 91       	ld	r24, Z+
    11dc:	7f 01       	movw	r14, r30
    11de:	88 23       	and	r24, r24
    11e0:	09 f4       	brne	.+2      	; 0x11e4 <vfprintf+0x3a>
    11e2:	ba c1       	rjmp	.+884    	; 0x1558 <vfprintf+0x3ae>
    11e4:	85 32       	cpi	r24, 0x25	; 37
    11e6:	39 f4       	brne	.+14     	; 0x11f6 <vfprintf+0x4c>
    11e8:	93 fd       	sbrc	r25, 3
    11ea:	85 91       	lpm	r24, Z+
    11ec:	93 ff       	sbrs	r25, 3
    11ee:	81 91       	ld	r24, Z+
    11f0:	7f 01       	movw	r14, r30
    11f2:	85 32       	cpi	r24, 0x25	; 37
    11f4:	29 f4       	brne	.+10     	; 0x1200 <vfprintf+0x56>
    11f6:	b6 01       	movw	r22, r12
    11f8:	90 e0       	ldi	r25, 0x00	; 0
    11fa:	0e 94 cc 0a 	call	0x1598	; 0x1598 <fputc>
    11fe:	e7 cf       	rjmp	.-50     	; 0x11ce <vfprintf+0x24>
    1200:	91 2c       	mov	r9, r1
    1202:	21 2c       	mov	r2, r1
    1204:	31 2c       	mov	r3, r1
    1206:	ff e1       	ldi	r31, 0x1F	; 31
    1208:	f3 15       	cp	r31, r3
    120a:	d8 f0       	brcs	.+54     	; 0x1242 <vfprintf+0x98>
    120c:	8b 32       	cpi	r24, 0x2B	; 43
    120e:	79 f0       	breq	.+30     	; 0x122e <vfprintf+0x84>
    1210:	38 f4       	brcc	.+14     	; 0x1220 <vfprintf+0x76>
    1212:	80 32       	cpi	r24, 0x20	; 32
    1214:	79 f0       	breq	.+30     	; 0x1234 <vfprintf+0x8a>
    1216:	83 32       	cpi	r24, 0x23	; 35
    1218:	a1 f4       	brne	.+40     	; 0x1242 <vfprintf+0x98>
    121a:	23 2d       	mov	r18, r3
    121c:	20 61       	ori	r18, 0x10	; 16
    121e:	1d c0       	rjmp	.+58     	; 0x125a <vfprintf+0xb0>
    1220:	8d 32       	cpi	r24, 0x2D	; 45
    1222:	61 f0       	breq	.+24     	; 0x123c <vfprintf+0x92>
    1224:	80 33       	cpi	r24, 0x30	; 48
    1226:	69 f4       	brne	.+26     	; 0x1242 <vfprintf+0x98>
    1228:	23 2d       	mov	r18, r3
    122a:	21 60       	ori	r18, 0x01	; 1
    122c:	16 c0       	rjmp	.+44     	; 0x125a <vfprintf+0xb0>
    122e:	83 2d       	mov	r24, r3
    1230:	82 60       	ori	r24, 0x02	; 2
    1232:	38 2e       	mov	r3, r24
    1234:	e3 2d       	mov	r30, r3
    1236:	e4 60       	ori	r30, 0x04	; 4
    1238:	3e 2e       	mov	r3, r30
    123a:	2a c0       	rjmp	.+84     	; 0x1290 <vfprintf+0xe6>
    123c:	f3 2d       	mov	r31, r3
    123e:	f8 60       	ori	r31, 0x08	; 8
    1240:	1d c0       	rjmp	.+58     	; 0x127c <vfprintf+0xd2>
    1242:	37 fc       	sbrc	r3, 7
    1244:	2d c0       	rjmp	.+90     	; 0x12a0 <vfprintf+0xf6>
    1246:	20 ed       	ldi	r18, 0xD0	; 208
    1248:	28 0f       	add	r18, r24
    124a:	2a 30       	cpi	r18, 0x0A	; 10
    124c:	40 f0       	brcs	.+16     	; 0x125e <vfprintf+0xb4>
    124e:	8e 32       	cpi	r24, 0x2E	; 46
    1250:	b9 f4       	brne	.+46     	; 0x1280 <vfprintf+0xd6>
    1252:	36 fc       	sbrc	r3, 6
    1254:	81 c1       	rjmp	.+770    	; 0x1558 <vfprintf+0x3ae>
    1256:	23 2d       	mov	r18, r3
    1258:	20 64       	ori	r18, 0x40	; 64
    125a:	32 2e       	mov	r3, r18
    125c:	19 c0       	rjmp	.+50     	; 0x1290 <vfprintf+0xe6>
    125e:	36 fe       	sbrs	r3, 6
    1260:	06 c0       	rjmp	.+12     	; 0x126e <vfprintf+0xc4>
    1262:	8a e0       	ldi	r24, 0x0A	; 10
    1264:	98 9e       	mul	r9, r24
    1266:	20 0d       	add	r18, r0
    1268:	11 24       	eor	r1, r1
    126a:	92 2e       	mov	r9, r18
    126c:	11 c0       	rjmp	.+34     	; 0x1290 <vfprintf+0xe6>
    126e:	ea e0       	ldi	r30, 0x0A	; 10
    1270:	2e 9e       	mul	r2, r30
    1272:	20 0d       	add	r18, r0
    1274:	11 24       	eor	r1, r1
    1276:	22 2e       	mov	r2, r18
    1278:	f3 2d       	mov	r31, r3
    127a:	f0 62       	ori	r31, 0x20	; 32
    127c:	3f 2e       	mov	r3, r31
    127e:	08 c0       	rjmp	.+16     	; 0x1290 <vfprintf+0xe6>
    1280:	8c 36       	cpi	r24, 0x6C	; 108
    1282:	21 f4       	brne	.+8      	; 0x128c <vfprintf+0xe2>
    1284:	83 2d       	mov	r24, r3
    1286:	80 68       	ori	r24, 0x80	; 128
    1288:	38 2e       	mov	r3, r24
    128a:	02 c0       	rjmp	.+4      	; 0x1290 <vfprintf+0xe6>
    128c:	88 36       	cpi	r24, 0x68	; 104
    128e:	41 f4       	brne	.+16     	; 0x12a0 <vfprintf+0xf6>
    1290:	f7 01       	movw	r30, r14
    1292:	93 fd       	sbrc	r25, 3
    1294:	85 91       	lpm	r24, Z+
    1296:	93 ff       	sbrs	r25, 3
    1298:	81 91       	ld	r24, Z+
    129a:	7f 01       	movw	r14, r30
    129c:	81 11       	cpse	r24, r1
    129e:	b3 cf       	rjmp	.-154    	; 0x1206 <vfprintf+0x5c>
    12a0:	98 2f       	mov	r25, r24
    12a2:	9f 7d       	andi	r25, 0xDF	; 223
    12a4:	95 54       	subi	r25, 0x45	; 69
    12a6:	93 30       	cpi	r25, 0x03	; 3
    12a8:	28 f4       	brcc	.+10     	; 0x12b4 <vfprintf+0x10a>
    12aa:	0c 5f       	subi	r16, 0xFC	; 252
    12ac:	1f 4f       	sbci	r17, 0xFF	; 255
    12ae:	9f e3       	ldi	r25, 0x3F	; 63
    12b0:	99 83       	std	Y+1, r25	; 0x01
    12b2:	0d c0       	rjmp	.+26     	; 0x12ce <vfprintf+0x124>
    12b4:	83 36       	cpi	r24, 0x63	; 99
    12b6:	31 f0       	breq	.+12     	; 0x12c4 <vfprintf+0x11a>
    12b8:	83 37       	cpi	r24, 0x73	; 115
    12ba:	71 f0       	breq	.+28     	; 0x12d8 <vfprintf+0x12e>
    12bc:	83 35       	cpi	r24, 0x53	; 83
    12be:	09 f0       	breq	.+2      	; 0x12c2 <vfprintf+0x118>
    12c0:	59 c0       	rjmp	.+178    	; 0x1374 <vfprintf+0x1ca>
    12c2:	21 c0       	rjmp	.+66     	; 0x1306 <vfprintf+0x15c>
    12c4:	f8 01       	movw	r30, r16
    12c6:	80 81       	ld	r24, Z
    12c8:	89 83       	std	Y+1, r24	; 0x01
    12ca:	0e 5f       	subi	r16, 0xFE	; 254
    12cc:	1f 4f       	sbci	r17, 0xFF	; 255
    12ce:	88 24       	eor	r8, r8
    12d0:	83 94       	inc	r8
    12d2:	91 2c       	mov	r9, r1
    12d4:	53 01       	movw	r10, r6
    12d6:	13 c0       	rjmp	.+38     	; 0x12fe <vfprintf+0x154>
    12d8:	28 01       	movw	r4, r16
    12da:	f2 e0       	ldi	r31, 0x02	; 2
    12dc:	4f 0e       	add	r4, r31
    12de:	51 1c       	adc	r5, r1
    12e0:	f8 01       	movw	r30, r16
    12e2:	a0 80       	ld	r10, Z
    12e4:	b1 80       	ldd	r11, Z+1	; 0x01
    12e6:	36 fe       	sbrs	r3, 6
    12e8:	03 c0       	rjmp	.+6      	; 0x12f0 <vfprintf+0x146>
    12ea:	69 2d       	mov	r22, r9
    12ec:	70 e0       	ldi	r23, 0x00	; 0
    12ee:	02 c0       	rjmp	.+4      	; 0x12f4 <vfprintf+0x14a>
    12f0:	6f ef       	ldi	r22, 0xFF	; 255
    12f2:	7f ef       	ldi	r23, 0xFF	; 255
    12f4:	c5 01       	movw	r24, r10
    12f6:	0e 94 c1 0a 	call	0x1582	; 0x1582 <strnlen>
    12fa:	4c 01       	movw	r8, r24
    12fc:	82 01       	movw	r16, r4
    12fe:	f3 2d       	mov	r31, r3
    1300:	ff 77       	andi	r31, 0x7F	; 127
    1302:	3f 2e       	mov	r3, r31
    1304:	16 c0       	rjmp	.+44     	; 0x1332 <vfprintf+0x188>
    1306:	28 01       	movw	r4, r16
    1308:	22 e0       	ldi	r18, 0x02	; 2
    130a:	42 0e       	add	r4, r18
    130c:	51 1c       	adc	r5, r1
    130e:	f8 01       	movw	r30, r16
    1310:	a0 80       	ld	r10, Z
    1312:	b1 80       	ldd	r11, Z+1	; 0x01
    1314:	36 fe       	sbrs	r3, 6
    1316:	03 c0       	rjmp	.+6      	; 0x131e <vfprintf+0x174>
    1318:	69 2d       	mov	r22, r9
    131a:	70 e0       	ldi	r23, 0x00	; 0
    131c:	02 c0       	rjmp	.+4      	; 0x1322 <vfprintf+0x178>
    131e:	6f ef       	ldi	r22, 0xFF	; 255
    1320:	7f ef       	ldi	r23, 0xFF	; 255
    1322:	c5 01       	movw	r24, r10
    1324:	0e 94 b6 0a 	call	0x156c	; 0x156c <strnlen_P>
    1328:	4c 01       	movw	r8, r24
    132a:	f3 2d       	mov	r31, r3
    132c:	f0 68       	ori	r31, 0x80	; 128
    132e:	3f 2e       	mov	r3, r31
    1330:	82 01       	movw	r16, r4
    1332:	33 fc       	sbrc	r3, 3
    1334:	1b c0       	rjmp	.+54     	; 0x136c <vfprintf+0x1c2>
    1336:	82 2d       	mov	r24, r2
    1338:	90 e0       	ldi	r25, 0x00	; 0
    133a:	88 16       	cp	r8, r24
    133c:	99 06       	cpc	r9, r25
    133e:	b0 f4       	brcc	.+44     	; 0x136c <vfprintf+0x1c2>
    1340:	b6 01       	movw	r22, r12
    1342:	80 e2       	ldi	r24, 0x20	; 32
    1344:	90 e0       	ldi	r25, 0x00	; 0
    1346:	0e 94 cc 0a 	call	0x1598	; 0x1598 <fputc>
    134a:	2a 94       	dec	r2
    134c:	f4 cf       	rjmp	.-24     	; 0x1336 <vfprintf+0x18c>
    134e:	f5 01       	movw	r30, r10
    1350:	37 fc       	sbrc	r3, 7
    1352:	85 91       	lpm	r24, Z+
    1354:	37 fe       	sbrs	r3, 7
    1356:	81 91       	ld	r24, Z+
    1358:	5f 01       	movw	r10, r30
    135a:	b6 01       	movw	r22, r12
    135c:	90 e0       	ldi	r25, 0x00	; 0
    135e:	0e 94 cc 0a 	call	0x1598	; 0x1598 <fputc>
    1362:	21 10       	cpse	r2, r1
    1364:	2a 94       	dec	r2
    1366:	21 e0       	ldi	r18, 0x01	; 1
    1368:	82 1a       	sub	r8, r18
    136a:	91 08       	sbc	r9, r1
    136c:	81 14       	cp	r8, r1
    136e:	91 04       	cpc	r9, r1
    1370:	71 f7       	brne	.-36     	; 0x134e <vfprintf+0x1a4>
    1372:	e8 c0       	rjmp	.+464    	; 0x1544 <vfprintf+0x39a>
    1374:	84 36       	cpi	r24, 0x64	; 100
    1376:	11 f0       	breq	.+4      	; 0x137c <vfprintf+0x1d2>
    1378:	89 36       	cpi	r24, 0x69	; 105
    137a:	41 f5       	brne	.+80     	; 0x13cc <vfprintf+0x222>
    137c:	f8 01       	movw	r30, r16
    137e:	37 fe       	sbrs	r3, 7
    1380:	07 c0       	rjmp	.+14     	; 0x1390 <vfprintf+0x1e6>
    1382:	60 81       	ld	r22, Z
    1384:	71 81       	ldd	r23, Z+1	; 0x01
    1386:	82 81       	ldd	r24, Z+2	; 0x02
    1388:	93 81       	ldd	r25, Z+3	; 0x03
    138a:	0c 5f       	subi	r16, 0xFC	; 252
    138c:	1f 4f       	sbci	r17, 0xFF	; 255
    138e:	08 c0       	rjmp	.+16     	; 0x13a0 <vfprintf+0x1f6>
    1390:	60 81       	ld	r22, Z
    1392:	71 81       	ldd	r23, Z+1	; 0x01
    1394:	07 2e       	mov	r0, r23
    1396:	00 0c       	add	r0, r0
    1398:	88 0b       	sbc	r24, r24
    139a:	99 0b       	sbc	r25, r25
    139c:	0e 5f       	subi	r16, 0xFE	; 254
    139e:	1f 4f       	sbci	r17, 0xFF	; 255
    13a0:	f3 2d       	mov	r31, r3
    13a2:	ff 76       	andi	r31, 0x6F	; 111
    13a4:	3f 2e       	mov	r3, r31
    13a6:	97 ff       	sbrs	r25, 7
    13a8:	09 c0       	rjmp	.+18     	; 0x13bc <vfprintf+0x212>
    13aa:	90 95       	com	r25
    13ac:	80 95       	com	r24
    13ae:	70 95       	com	r23
    13b0:	61 95       	neg	r22
    13b2:	7f 4f       	sbci	r23, 0xFF	; 255
    13b4:	8f 4f       	sbci	r24, 0xFF	; 255
    13b6:	9f 4f       	sbci	r25, 0xFF	; 255
    13b8:	f0 68       	ori	r31, 0x80	; 128
    13ba:	3f 2e       	mov	r3, r31
    13bc:	2a e0       	ldi	r18, 0x0A	; 10
    13be:	30 e0       	ldi	r19, 0x00	; 0
    13c0:	a3 01       	movw	r20, r6
    13c2:	0e 94 08 0b 	call	0x1610	; 0x1610 <__ultoa_invert>
    13c6:	88 2e       	mov	r8, r24
    13c8:	86 18       	sub	r8, r6
    13ca:	45 c0       	rjmp	.+138    	; 0x1456 <vfprintf+0x2ac>
    13cc:	85 37       	cpi	r24, 0x75	; 117
    13ce:	31 f4       	brne	.+12     	; 0x13dc <vfprintf+0x232>
    13d0:	23 2d       	mov	r18, r3
    13d2:	2f 7e       	andi	r18, 0xEF	; 239
    13d4:	b2 2e       	mov	r11, r18
    13d6:	2a e0       	ldi	r18, 0x0A	; 10
    13d8:	30 e0       	ldi	r19, 0x00	; 0
    13da:	25 c0       	rjmp	.+74     	; 0x1426 <vfprintf+0x27c>
    13dc:	93 2d       	mov	r25, r3
    13de:	99 7f       	andi	r25, 0xF9	; 249
    13e0:	b9 2e       	mov	r11, r25
    13e2:	8f 36       	cpi	r24, 0x6F	; 111
    13e4:	c1 f0       	breq	.+48     	; 0x1416 <vfprintf+0x26c>
    13e6:	18 f4       	brcc	.+6      	; 0x13ee <vfprintf+0x244>
    13e8:	88 35       	cpi	r24, 0x58	; 88
    13ea:	79 f0       	breq	.+30     	; 0x140a <vfprintf+0x260>
    13ec:	b5 c0       	rjmp	.+362    	; 0x1558 <vfprintf+0x3ae>
    13ee:	80 37       	cpi	r24, 0x70	; 112
    13f0:	19 f0       	breq	.+6      	; 0x13f8 <vfprintf+0x24e>
    13f2:	88 37       	cpi	r24, 0x78	; 120
    13f4:	21 f0       	breq	.+8      	; 0x13fe <vfprintf+0x254>
    13f6:	b0 c0       	rjmp	.+352    	; 0x1558 <vfprintf+0x3ae>
    13f8:	e9 2f       	mov	r30, r25
    13fa:	e0 61       	ori	r30, 0x10	; 16
    13fc:	be 2e       	mov	r11, r30
    13fe:	b4 fe       	sbrs	r11, 4
    1400:	0d c0       	rjmp	.+26     	; 0x141c <vfprintf+0x272>
    1402:	fb 2d       	mov	r31, r11
    1404:	f4 60       	ori	r31, 0x04	; 4
    1406:	bf 2e       	mov	r11, r31
    1408:	09 c0       	rjmp	.+18     	; 0x141c <vfprintf+0x272>
    140a:	34 fe       	sbrs	r3, 4
    140c:	0a c0       	rjmp	.+20     	; 0x1422 <vfprintf+0x278>
    140e:	29 2f       	mov	r18, r25
    1410:	26 60       	ori	r18, 0x06	; 6
    1412:	b2 2e       	mov	r11, r18
    1414:	06 c0       	rjmp	.+12     	; 0x1422 <vfprintf+0x278>
    1416:	28 e0       	ldi	r18, 0x08	; 8
    1418:	30 e0       	ldi	r19, 0x00	; 0
    141a:	05 c0       	rjmp	.+10     	; 0x1426 <vfprintf+0x27c>
    141c:	20 e1       	ldi	r18, 0x10	; 16
    141e:	30 e0       	ldi	r19, 0x00	; 0
    1420:	02 c0       	rjmp	.+4      	; 0x1426 <vfprintf+0x27c>
    1422:	20 e1       	ldi	r18, 0x10	; 16
    1424:	32 e0       	ldi	r19, 0x02	; 2
    1426:	f8 01       	movw	r30, r16
    1428:	b7 fe       	sbrs	r11, 7
    142a:	07 c0       	rjmp	.+14     	; 0x143a <vfprintf+0x290>
    142c:	60 81       	ld	r22, Z
    142e:	71 81       	ldd	r23, Z+1	; 0x01
    1430:	82 81       	ldd	r24, Z+2	; 0x02
    1432:	93 81       	ldd	r25, Z+3	; 0x03
    1434:	0c 5f       	subi	r16, 0xFC	; 252
    1436:	1f 4f       	sbci	r17, 0xFF	; 255
    1438:	06 c0       	rjmp	.+12     	; 0x1446 <vfprintf+0x29c>
    143a:	60 81       	ld	r22, Z
    143c:	71 81       	ldd	r23, Z+1	; 0x01
    143e:	80 e0       	ldi	r24, 0x00	; 0
    1440:	90 e0       	ldi	r25, 0x00	; 0
    1442:	0e 5f       	subi	r16, 0xFE	; 254
    1444:	1f 4f       	sbci	r17, 0xFF	; 255
    1446:	a3 01       	movw	r20, r6
    1448:	0e 94 08 0b 	call	0x1610	; 0x1610 <__ultoa_invert>
    144c:	88 2e       	mov	r8, r24
    144e:	86 18       	sub	r8, r6
    1450:	fb 2d       	mov	r31, r11
    1452:	ff 77       	andi	r31, 0x7F	; 127
    1454:	3f 2e       	mov	r3, r31
    1456:	36 fe       	sbrs	r3, 6
    1458:	0d c0       	rjmp	.+26     	; 0x1474 <vfprintf+0x2ca>
    145a:	23 2d       	mov	r18, r3
    145c:	2e 7f       	andi	r18, 0xFE	; 254
    145e:	a2 2e       	mov	r10, r18
    1460:	89 14       	cp	r8, r9
    1462:	58 f4       	brcc	.+22     	; 0x147a <vfprintf+0x2d0>
    1464:	34 fe       	sbrs	r3, 4
    1466:	0b c0       	rjmp	.+22     	; 0x147e <vfprintf+0x2d4>
    1468:	32 fc       	sbrc	r3, 2
    146a:	09 c0       	rjmp	.+18     	; 0x147e <vfprintf+0x2d4>
    146c:	83 2d       	mov	r24, r3
    146e:	8e 7e       	andi	r24, 0xEE	; 238
    1470:	a8 2e       	mov	r10, r24
    1472:	05 c0       	rjmp	.+10     	; 0x147e <vfprintf+0x2d4>
    1474:	b8 2c       	mov	r11, r8
    1476:	a3 2c       	mov	r10, r3
    1478:	03 c0       	rjmp	.+6      	; 0x1480 <vfprintf+0x2d6>
    147a:	b8 2c       	mov	r11, r8
    147c:	01 c0       	rjmp	.+2      	; 0x1480 <vfprintf+0x2d6>
    147e:	b9 2c       	mov	r11, r9
    1480:	a4 fe       	sbrs	r10, 4
    1482:	0f c0       	rjmp	.+30     	; 0x14a2 <vfprintf+0x2f8>
    1484:	fe 01       	movw	r30, r28
    1486:	e8 0d       	add	r30, r8
    1488:	f1 1d       	adc	r31, r1
    148a:	80 81       	ld	r24, Z
    148c:	80 33       	cpi	r24, 0x30	; 48
    148e:	21 f4       	brne	.+8      	; 0x1498 <vfprintf+0x2ee>
    1490:	9a 2d       	mov	r25, r10
    1492:	99 7e       	andi	r25, 0xE9	; 233
    1494:	a9 2e       	mov	r10, r25
    1496:	09 c0       	rjmp	.+18     	; 0x14aa <vfprintf+0x300>
    1498:	a2 fe       	sbrs	r10, 2
    149a:	06 c0       	rjmp	.+12     	; 0x14a8 <vfprintf+0x2fe>
    149c:	b3 94       	inc	r11
    149e:	b3 94       	inc	r11
    14a0:	04 c0       	rjmp	.+8      	; 0x14aa <vfprintf+0x300>
    14a2:	8a 2d       	mov	r24, r10
    14a4:	86 78       	andi	r24, 0x86	; 134
    14a6:	09 f0       	breq	.+2      	; 0x14aa <vfprintf+0x300>
    14a8:	b3 94       	inc	r11
    14aa:	a3 fc       	sbrc	r10, 3
    14ac:	11 c0       	rjmp	.+34     	; 0x14d0 <vfprintf+0x326>
    14ae:	a0 fe       	sbrs	r10, 0
    14b0:	06 c0       	rjmp	.+12     	; 0x14be <vfprintf+0x314>
    14b2:	b2 14       	cp	r11, r2
    14b4:	88 f4       	brcc	.+34     	; 0x14d8 <vfprintf+0x32e>
    14b6:	28 0c       	add	r2, r8
    14b8:	92 2c       	mov	r9, r2
    14ba:	9b 18       	sub	r9, r11
    14bc:	0e c0       	rjmp	.+28     	; 0x14da <vfprintf+0x330>
    14be:	b2 14       	cp	r11, r2
    14c0:	60 f4       	brcc	.+24     	; 0x14da <vfprintf+0x330>
    14c2:	b6 01       	movw	r22, r12
    14c4:	80 e2       	ldi	r24, 0x20	; 32
    14c6:	90 e0       	ldi	r25, 0x00	; 0
    14c8:	0e 94 cc 0a 	call	0x1598	; 0x1598 <fputc>
    14cc:	b3 94       	inc	r11
    14ce:	f7 cf       	rjmp	.-18     	; 0x14be <vfprintf+0x314>
    14d0:	b2 14       	cp	r11, r2
    14d2:	18 f4       	brcc	.+6      	; 0x14da <vfprintf+0x330>
    14d4:	2b 18       	sub	r2, r11
    14d6:	02 c0       	rjmp	.+4      	; 0x14dc <vfprintf+0x332>
    14d8:	98 2c       	mov	r9, r8
    14da:	21 2c       	mov	r2, r1
    14dc:	a4 fe       	sbrs	r10, 4
    14de:	10 c0       	rjmp	.+32     	; 0x1500 <vfprintf+0x356>
    14e0:	b6 01       	movw	r22, r12
    14e2:	80 e3       	ldi	r24, 0x30	; 48
    14e4:	90 e0       	ldi	r25, 0x00	; 0
    14e6:	0e 94 cc 0a 	call	0x1598	; 0x1598 <fputc>
    14ea:	a2 fe       	sbrs	r10, 2
    14ec:	17 c0       	rjmp	.+46     	; 0x151c <vfprintf+0x372>
    14ee:	a1 fc       	sbrc	r10, 1
    14f0:	03 c0       	rjmp	.+6      	; 0x14f8 <vfprintf+0x34e>
    14f2:	88 e7       	ldi	r24, 0x78	; 120
    14f4:	90 e0       	ldi	r25, 0x00	; 0
    14f6:	02 c0       	rjmp	.+4      	; 0x14fc <vfprintf+0x352>
    14f8:	88 e5       	ldi	r24, 0x58	; 88
    14fa:	90 e0       	ldi	r25, 0x00	; 0
    14fc:	b6 01       	movw	r22, r12
    14fe:	0c c0       	rjmp	.+24     	; 0x1518 <vfprintf+0x36e>
    1500:	8a 2d       	mov	r24, r10
    1502:	86 78       	andi	r24, 0x86	; 134
    1504:	59 f0       	breq	.+22     	; 0x151c <vfprintf+0x372>
    1506:	a1 fe       	sbrs	r10, 1
    1508:	02 c0       	rjmp	.+4      	; 0x150e <vfprintf+0x364>
    150a:	8b e2       	ldi	r24, 0x2B	; 43
    150c:	01 c0       	rjmp	.+2      	; 0x1510 <vfprintf+0x366>
    150e:	80 e2       	ldi	r24, 0x20	; 32
    1510:	a7 fc       	sbrc	r10, 7
    1512:	8d e2       	ldi	r24, 0x2D	; 45
    1514:	b6 01       	movw	r22, r12
    1516:	90 e0       	ldi	r25, 0x00	; 0
    1518:	0e 94 cc 0a 	call	0x1598	; 0x1598 <fputc>
    151c:	89 14       	cp	r8, r9
    151e:	38 f4       	brcc	.+14     	; 0x152e <vfprintf+0x384>
    1520:	b6 01       	movw	r22, r12
    1522:	80 e3       	ldi	r24, 0x30	; 48
    1524:	90 e0       	ldi	r25, 0x00	; 0
    1526:	0e 94 cc 0a 	call	0x1598	; 0x1598 <fputc>
    152a:	9a 94       	dec	r9
    152c:	f7 cf       	rjmp	.-18     	; 0x151c <vfprintf+0x372>
    152e:	8a 94       	dec	r8
    1530:	f3 01       	movw	r30, r6
    1532:	e8 0d       	add	r30, r8
    1534:	f1 1d       	adc	r31, r1
    1536:	80 81       	ld	r24, Z
    1538:	b6 01       	movw	r22, r12
    153a:	90 e0       	ldi	r25, 0x00	; 0
    153c:	0e 94 cc 0a 	call	0x1598	; 0x1598 <fputc>
    1540:	81 10       	cpse	r8, r1
    1542:	f5 cf       	rjmp	.-22     	; 0x152e <vfprintf+0x384>
    1544:	22 20       	and	r2, r2
    1546:	09 f4       	brne	.+2      	; 0x154a <vfprintf+0x3a0>
    1548:	42 ce       	rjmp	.-892    	; 0x11ce <vfprintf+0x24>
    154a:	b6 01       	movw	r22, r12
    154c:	80 e2       	ldi	r24, 0x20	; 32
    154e:	90 e0       	ldi	r25, 0x00	; 0
    1550:	0e 94 cc 0a 	call	0x1598	; 0x1598 <fputc>
    1554:	2a 94       	dec	r2
    1556:	f6 cf       	rjmp	.-20     	; 0x1544 <vfprintf+0x39a>
    1558:	f6 01       	movw	r30, r12
    155a:	86 81       	ldd	r24, Z+6	; 0x06
    155c:	97 81       	ldd	r25, Z+7	; 0x07
    155e:	02 c0       	rjmp	.+4      	; 0x1564 <vfprintf+0x3ba>
    1560:	8f ef       	ldi	r24, 0xFF	; 255
    1562:	9f ef       	ldi	r25, 0xFF	; 255
    1564:	2b 96       	adiw	r28, 0x0b	; 11
    1566:	e2 e1       	ldi	r30, 0x12	; 18
    1568:	0c 94 82 0b 	jmp	0x1704	; 0x1704 <__epilogue_restores__>

0000156c <strnlen_P>:
    156c:	fc 01       	movw	r30, r24
    156e:	05 90       	lpm	r0, Z+
    1570:	61 50       	subi	r22, 0x01	; 1
    1572:	70 40       	sbci	r23, 0x00	; 0
    1574:	01 10       	cpse	r0, r1
    1576:	d8 f7       	brcc	.-10     	; 0x156e <strnlen_P+0x2>
    1578:	80 95       	com	r24
    157a:	90 95       	com	r25
    157c:	8e 0f       	add	r24, r30
    157e:	9f 1f       	adc	r25, r31
    1580:	08 95       	ret

00001582 <strnlen>:
    1582:	fc 01       	movw	r30, r24
    1584:	61 50       	subi	r22, 0x01	; 1
    1586:	70 40       	sbci	r23, 0x00	; 0
    1588:	01 90       	ld	r0, Z+
    158a:	01 10       	cpse	r0, r1
    158c:	d8 f7       	brcc	.-10     	; 0x1584 <strnlen+0x2>
    158e:	80 95       	com	r24
    1590:	90 95       	com	r25
    1592:	8e 0f       	add	r24, r30
    1594:	9f 1f       	adc	r25, r31
    1596:	08 95       	ret

00001598 <fputc>:
    1598:	0f 93       	push	r16
    159a:	1f 93       	push	r17
    159c:	cf 93       	push	r28
    159e:	df 93       	push	r29
    15a0:	fb 01       	movw	r30, r22
    15a2:	23 81       	ldd	r18, Z+3	; 0x03
    15a4:	21 fd       	sbrc	r18, 1
    15a6:	03 c0       	rjmp	.+6      	; 0x15ae <fputc+0x16>
    15a8:	8f ef       	ldi	r24, 0xFF	; 255
    15aa:	9f ef       	ldi	r25, 0xFF	; 255
    15ac:	2c c0       	rjmp	.+88     	; 0x1606 <fputc+0x6e>
    15ae:	22 ff       	sbrs	r18, 2
    15b0:	16 c0       	rjmp	.+44     	; 0x15de <fputc+0x46>
    15b2:	46 81       	ldd	r20, Z+6	; 0x06
    15b4:	57 81       	ldd	r21, Z+7	; 0x07
    15b6:	24 81       	ldd	r18, Z+4	; 0x04
    15b8:	35 81       	ldd	r19, Z+5	; 0x05
    15ba:	42 17       	cp	r20, r18
    15bc:	53 07       	cpc	r21, r19
    15be:	44 f4       	brge	.+16     	; 0x15d0 <fputc+0x38>
    15c0:	a0 81       	ld	r26, Z
    15c2:	b1 81       	ldd	r27, Z+1	; 0x01
    15c4:	9d 01       	movw	r18, r26
    15c6:	2f 5f       	subi	r18, 0xFF	; 255
    15c8:	3f 4f       	sbci	r19, 0xFF	; 255
    15ca:	31 83       	std	Z+1, r19	; 0x01
    15cc:	20 83       	st	Z, r18
    15ce:	8c 93       	st	X, r24
    15d0:	26 81       	ldd	r18, Z+6	; 0x06
    15d2:	37 81       	ldd	r19, Z+7	; 0x07
    15d4:	2f 5f       	subi	r18, 0xFF	; 255
    15d6:	3f 4f       	sbci	r19, 0xFF	; 255
    15d8:	37 83       	std	Z+7, r19	; 0x07
    15da:	26 83       	std	Z+6, r18	; 0x06
    15dc:	14 c0       	rjmp	.+40     	; 0x1606 <fputc+0x6e>
    15de:	8b 01       	movw	r16, r22
    15e0:	ec 01       	movw	r28, r24
    15e2:	fb 01       	movw	r30, r22
    15e4:	00 84       	ldd	r0, Z+8	; 0x08
    15e6:	f1 85       	ldd	r31, Z+9	; 0x09
    15e8:	e0 2d       	mov	r30, r0
    15ea:	09 95       	icall
    15ec:	89 2b       	or	r24, r25
    15ee:	e1 f6       	brne	.-72     	; 0x15a8 <fputc+0x10>
    15f0:	d8 01       	movw	r26, r16
    15f2:	16 96       	adiw	r26, 0x06	; 6
    15f4:	8d 91       	ld	r24, X+
    15f6:	9c 91       	ld	r25, X
    15f8:	17 97       	sbiw	r26, 0x07	; 7
    15fa:	01 96       	adiw	r24, 0x01	; 1
    15fc:	17 96       	adiw	r26, 0x07	; 7
    15fe:	9c 93       	st	X, r25
    1600:	8e 93       	st	-X, r24
    1602:	16 97       	sbiw	r26, 0x06	; 6
    1604:	ce 01       	movw	r24, r28
    1606:	df 91       	pop	r29
    1608:	cf 91       	pop	r28
    160a:	1f 91       	pop	r17
    160c:	0f 91       	pop	r16
    160e:	08 95       	ret

00001610 <__ultoa_invert>:
    1610:	fa 01       	movw	r30, r20
    1612:	aa 27       	eor	r26, r26
    1614:	28 30       	cpi	r18, 0x08	; 8
    1616:	51 f1       	breq	.+84     	; 0x166c <__ultoa_invert+0x5c>
    1618:	20 31       	cpi	r18, 0x10	; 16
    161a:	81 f1       	breq	.+96     	; 0x167c <__ultoa_invert+0x6c>
    161c:	e8 94       	clt
    161e:	6f 93       	push	r22
    1620:	6e 7f       	andi	r22, 0xFE	; 254
    1622:	6e 5f       	subi	r22, 0xFE	; 254
    1624:	7f 4f       	sbci	r23, 0xFF	; 255
    1626:	8f 4f       	sbci	r24, 0xFF	; 255
    1628:	9f 4f       	sbci	r25, 0xFF	; 255
    162a:	af 4f       	sbci	r26, 0xFF	; 255
    162c:	b1 e0       	ldi	r27, 0x01	; 1
    162e:	3e d0       	rcall	.+124    	; 0x16ac <__ultoa_invert+0x9c>
    1630:	b4 e0       	ldi	r27, 0x04	; 4
    1632:	3c d0       	rcall	.+120    	; 0x16ac <__ultoa_invert+0x9c>
    1634:	67 0f       	add	r22, r23
    1636:	78 1f       	adc	r23, r24
    1638:	89 1f       	adc	r24, r25
    163a:	9a 1f       	adc	r25, r26
    163c:	a1 1d       	adc	r26, r1
    163e:	68 0f       	add	r22, r24
    1640:	79 1f       	adc	r23, r25
    1642:	8a 1f       	adc	r24, r26
    1644:	91 1d       	adc	r25, r1
    1646:	a1 1d       	adc	r26, r1
    1648:	6a 0f       	add	r22, r26
    164a:	71 1d       	adc	r23, r1
    164c:	81 1d       	adc	r24, r1
    164e:	91 1d       	adc	r25, r1
    1650:	a1 1d       	adc	r26, r1
    1652:	20 d0       	rcall	.+64     	; 0x1694 <__ultoa_invert+0x84>
    1654:	09 f4       	brne	.+2      	; 0x1658 <__ultoa_invert+0x48>
    1656:	68 94       	set
    1658:	3f 91       	pop	r19
    165a:	2a e0       	ldi	r18, 0x0A	; 10
    165c:	26 9f       	mul	r18, r22
    165e:	11 24       	eor	r1, r1
    1660:	30 19       	sub	r19, r0
    1662:	30 5d       	subi	r19, 0xD0	; 208
    1664:	31 93       	st	Z+, r19
    1666:	de f6       	brtc	.-74     	; 0x161e <__ultoa_invert+0xe>
    1668:	cf 01       	movw	r24, r30
    166a:	08 95       	ret
    166c:	46 2f       	mov	r20, r22
    166e:	47 70       	andi	r20, 0x07	; 7
    1670:	40 5d       	subi	r20, 0xD0	; 208
    1672:	41 93       	st	Z+, r20
    1674:	b3 e0       	ldi	r27, 0x03	; 3
    1676:	0f d0       	rcall	.+30     	; 0x1696 <__ultoa_invert+0x86>
    1678:	c9 f7       	brne	.-14     	; 0x166c <__ultoa_invert+0x5c>
    167a:	f6 cf       	rjmp	.-20     	; 0x1668 <__ultoa_invert+0x58>
    167c:	46 2f       	mov	r20, r22
    167e:	4f 70       	andi	r20, 0x0F	; 15
    1680:	40 5d       	subi	r20, 0xD0	; 208
    1682:	4a 33       	cpi	r20, 0x3A	; 58
    1684:	18 f0       	brcs	.+6      	; 0x168c <__ultoa_invert+0x7c>
    1686:	49 5d       	subi	r20, 0xD9	; 217
    1688:	31 fd       	sbrc	r19, 1
    168a:	40 52       	subi	r20, 0x20	; 32
    168c:	41 93       	st	Z+, r20
    168e:	02 d0       	rcall	.+4      	; 0x1694 <__ultoa_invert+0x84>
    1690:	a9 f7       	brne	.-22     	; 0x167c <__ultoa_invert+0x6c>
    1692:	ea cf       	rjmp	.-44     	; 0x1668 <__ultoa_invert+0x58>
    1694:	b4 e0       	ldi	r27, 0x04	; 4
    1696:	a6 95       	lsr	r26
    1698:	97 95       	ror	r25
    169a:	87 95       	ror	r24
    169c:	77 95       	ror	r23
    169e:	67 95       	ror	r22
    16a0:	ba 95       	dec	r27
    16a2:	c9 f7       	brne	.-14     	; 0x1696 <__ultoa_invert+0x86>
    16a4:	00 97       	sbiw	r24, 0x00	; 0
    16a6:	61 05       	cpc	r22, r1
    16a8:	71 05       	cpc	r23, r1
    16aa:	08 95       	ret
    16ac:	9b 01       	movw	r18, r22
    16ae:	ac 01       	movw	r20, r24
    16b0:	0a 2e       	mov	r0, r26
    16b2:	06 94       	lsr	r0
    16b4:	57 95       	ror	r21
    16b6:	47 95       	ror	r20
    16b8:	37 95       	ror	r19
    16ba:	27 95       	ror	r18
    16bc:	ba 95       	dec	r27
    16be:	c9 f7       	brne	.-14     	; 0x16b2 <__ultoa_invert+0xa2>
    16c0:	62 0f       	add	r22, r18
    16c2:	73 1f       	adc	r23, r19
    16c4:	84 1f       	adc	r24, r20
    16c6:	95 1f       	adc	r25, r21
    16c8:	a0 1d       	adc	r26, r0
    16ca:	08 95       	ret

000016cc <__prologue_saves__>:
    16cc:	2f 92       	push	r2
    16ce:	3f 92       	push	r3
    16d0:	4f 92       	push	r4
    16d2:	5f 92       	push	r5
    16d4:	6f 92       	push	r6
    16d6:	7f 92       	push	r7
    16d8:	8f 92       	push	r8
    16da:	9f 92       	push	r9
    16dc:	af 92       	push	r10
    16de:	bf 92       	push	r11
    16e0:	cf 92       	push	r12
    16e2:	df 92       	push	r13
    16e4:	ef 92       	push	r14
    16e6:	ff 92       	push	r15
    16e8:	0f 93       	push	r16
    16ea:	1f 93       	push	r17
    16ec:	cf 93       	push	r28
    16ee:	df 93       	push	r29
    16f0:	cd b7       	in	r28, 0x3d	; 61
    16f2:	de b7       	in	r29, 0x3e	; 62
    16f4:	ca 1b       	sub	r28, r26
    16f6:	db 0b       	sbc	r29, r27
    16f8:	0f b6       	in	r0, 0x3f	; 63
    16fa:	f8 94       	cli
    16fc:	de bf       	out	0x3e, r29	; 62
    16fe:	0f be       	out	0x3f, r0	; 63
    1700:	cd bf       	out	0x3d, r28	; 61
    1702:	09 94       	ijmp

00001704 <__epilogue_restores__>:
    1704:	2a 88       	ldd	r2, Y+18	; 0x12
    1706:	39 88       	ldd	r3, Y+17	; 0x11
    1708:	48 88       	ldd	r4, Y+16	; 0x10
    170a:	5f 84       	ldd	r5, Y+15	; 0x0f
    170c:	6e 84       	ldd	r6, Y+14	; 0x0e
    170e:	7d 84       	ldd	r7, Y+13	; 0x0d
    1710:	8c 84       	ldd	r8, Y+12	; 0x0c
    1712:	9b 84       	ldd	r9, Y+11	; 0x0b
    1714:	aa 84       	ldd	r10, Y+10	; 0x0a
    1716:	b9 84       	ldd	r11, Y+9	; 0x09
    1718:	c8 84       	ldd	r12, Y+8	; 0x08
    171a:	df 80       	ldd	r13, Y+7	; 0x07
    171c:	ee 80       	ldd	r14, Y+6	; 0x06
    171e:	fd 80       	ldd	r15, Y+5	; 0x05
    1720:	0c 81       	ldd	r16, Y+4	; 0x04
    1722:	1b 81       	ldd	r17, Y+3	; 0x03
    1724:	aa 81       	ldd	r26, Y+2	; 0x02
    1726:	b9 81       	ldd	r27, Y+1	; 0x01
    1728:	ce 0f       	add	r28, r30
    172a:	d1 1d       	adc	r29, r1
    172c:	0f b6       	in	r0, 0x3f	; 63
    172e:	f8 94       	cli
    1730:	de bf       	out	0x3e, r29	; 62
    1732:	0f be       	out	0x3f, r0	; 63
    1734:	cd bf       	out	0x3d, r28	; 61
    1736:	ed 01       	movw	r28, r26
    1738:	08 95       	ret

0000173a <_exit>:
    173a:	f8 94       	cli

0000173c <__stop_program>:
    173c:	ff cf       	rjmp	.-2      	; 0x173c <__stop_program>
